
ArduinoWaterMeter.elf:     file format elf32-avr

Sections:
Idx Name          Size      VMA       LMA       File off  Algn
  0 .data         0000015a  00800100  00003f64  00003ff8  2**0
                  CONTENTS, ALLOC, LOAD, DATA
  1 .text         00003f64  00000000  00000000  00000094  2**1
                  CONTENTS, ALLOC, LOAD, READONLY, CODE
  2 .bss          00000428  0080025a  0080025a  00004152  2**0
                  ALLOC
  3 .stab         0000b838  00000000  00000000  00004154  2**2
                  CONTENTS, READONLY, DEBUGGING
  4 .stabstr      0000b520  00000000  00000000  0000f98c  2**0
                  CONTENTS, READONLY, DEBUGGING

Disassembly of section .text:

00000000 <__vectors>:
       0:	6c c0       	rjmp	.+216    	; 0xda <__dtors_end>
       2:	00 00       	nop
       4:	92 c0       	rjmp	.+292    	; 0x12a <__bad_interrupt>
       6:	00 00       	nop
       8:	90 c0       	rjmp	.+288    	; 0x12a <__bad_interrupt>
       a:	00 00       	nop
       c:	8e c0       	rjmp	.+284    	; 0x12a <__bad_interrupt>
       e:	00 00       	nop
      10:	8c c0       	rjmp	.+280    	; 0x12a <__bad_interrupt>
      12:	00 00       	nop
      14:	8a c0       	rjmp	.+276    	; 0x12a <__bad_interrupt>
      16:	00 00       	nop
      18:	a7 c5       	rjmp	.+2894   	; 0xb68 <__vector_6>
      1a:	00 00       	nop
      1c:	86 c0       	rjmp	.+268    	; 0x12a <__bad_interrupt>
      1e:	00 00       	nop
      20:	84 c0       	rjmp	.+264    	; 0x12a <__bad_interrupt>
      22:	00 00       	nop
      24:	82 c0       	rjmp	.+260    	; 0x12a <__bad_interrupt>
      26:	00 00       	nop
      28:	80 c0       	rjmp	.+256    	; 0x12a <__bad_interrupt>
      2a:	00 00       	nop
      2c:	7e c0       	rjmp	.+252    	; 0x12a <__bad_interrupt>
      2e:	00 00       	nop
      30:	7c c0       	rjmp	.+248    	; 0x12a <__bad_interrupt>
      32:	00 00       	nop
      34:	7a c0       	rjmp	.+244    	; 0x12a <__bad_interrupt>
      36:	00 00       	nop
      38:	78 c0       	rjmp	.+240    	; 0x12a <__bad_interrupt>
      3a:	00 00       	nop
      3c:	76 c0       	rjmp	.+236    	; 0x12a <__bad_interrupt>
      3e:	00 00       	nop
      40:	0c 94 58 1d 	jmp	0x3ab0	; 0x3ab0 <__vector_16>
      44:	72 c0       	rjmp	.+228    	; 0x12a <__bad_interrupt>
      46:	00 00       	nop
      48:	0c 94 bd 1a 	jmp	0x357a	; 0x357a <__vector_18>
      4c:	0c 94 0a 1b 	jmp	0x3614	; 0x3614 <__vector_19>
      50:	6c c0       	rjmp	.+216    	; 0x12a <__bad_interrupt>
      52:	00 00       	nop
      54:	6a c0       	rjmp	.+212    	; 0x12a <__bad_interrupt>
      56:	00 00       	nop
      58:	68 c0       	rjmp	.+208    	; 0x12a <__bad_interrupt>
      5a:	00 00       	nop
      5c:	66 c0       	rjmp	.+204    	; 0x12a <__bad_interrupt>
      5e:	00 00       	nop
      60:	64 c0       	rjmp	.+200    	; 0x12a <__bad_interrupt>
      62:	00 00       	nop
      64:	62 c0       	rjmp	.+196    	; 0x12a <__bad_interrupt>
	...

00000068 <_ZZN6SdFile10make83NameEPKcPhE3__c>:
      68:	7c 3c 3e 5e 2b 3d 3f 2f 5b 5d 3b 2c 2a 22 5c 00     |<>^+=?/[];,*"\.

00000078 <port_to_mode_PGM>:
      78:	00 00 00 00 24 00 27 00 2a 00                       ....$.'.*.

00000082 <port_to_output_PGM>:
      82:	00 00 00 00 25 00 28 00 2b 00                       ....%.(.+.

0000008c <port_to_input_PGM>:
      8c:	00 00 00 00 23 00 26 00 29 00                       ....#.&.).

00000096 <digital_pin_to_port_PGM>:
      96:	04 04 04 04 04 04 04 04 02 02 02 02 02 02 03 03     ................
      a6:	03 03 03 03                                         ....

000000aa <digital_pin_to_bit_mask_PGM>:
      aa:	01 02 04 08 10 20 40 80 01 02 04 08 10 20 01 02     ..... @...... ..
      ba:	04 08 10 20                                         ... 

000000be <digital_pin_to_timer_PGM>:
      be:	00 00 00 07 00 02 01 00 00 03 04 06 00 00 00 00     ................
      ce:	00 00 00 00                                         ....

000000d2 <__ctors_start>:
      d2:	70 03       	mulsu	r23, r16
      d4:	cc 16       	cp	r12, r28
      d6:	7c 1c       	adc	r7, r12

000000d8 <__ctors_end>:
      d8:	6b 03       	fmul	r22, r19

000000da <__dtors_end>:
      da:	11 24       	eor	r1, r1
      dc:	1f be       	out	0x3f, r1	; 63
      de:	cf ef       	ldi	r28, 0xFF	; 255
      e0:	d8 e0       	ldi	r29, 0x08	; 8
      e2:	de bf       	out	0x3e, r29	; 62
      e4:	cd bf       	out	0x3d, r28	; 61

000000e6 <__do_copy_data>:
      e6:	12 e0       	ldi	r17, 0x02	; 2
      e8:	a0 e0       	ldi	r26, 0x00	; 0
      ea:	b1 e0       	ldi	r27, 0x01	; 1
      ec:	e4 e6       	ldi	r30, 0x64	; 100
      ee:	ff e3       	ldi	r31, 0x3F	; 63
      f0:	02 c0       	rjmp	.+4      	; 0xf6 <.do_copy_data_start>

000000f2 <.do_copy_data_loop>:
      f2:	05 90       	lpm	r0, Z+
      f4:	0d 92       	st	X+, r0

000000f6 <.do_copy_data_start>:
      f6:	aa 35       	cpi	r26, 0x5A	; 90
      f8:	b1 07       	cpc	r27, r17
      fa:	d9 f7       	brne	.-10     	; 0xf2 <.do_copy_data_loop>

000000fc <__do_clear_bss>:
      fc:	16 e0       	ldi	r17, 0x06	; 6
      fe:	aa e5       	ldi	r26, 0x5A	; 90
     100:	b2 e0       	ldi	r27, 0x02	; 2
     102:	01 c0       	rjmp	.+2      	; 0x106 <.do_clear_bss_start>

00000104 <.do_clear_bss_loop>:
     104:	1d 92       	st	X+, r1

00000106 <.do_clear_bss_start>:
     106:	a2 38       	cpi	r26, 0x82	; 130
     108:	b1 07       	cpc	r27, r17
     10a:	e1 f7       	brne	.-8      	; 0x104 <.do_clear_bss_loop>

0000010c <__do_global_ctors>:
     10c:	10 e0       	ldi	r17, 0x00	; 0
     10e:	c8 ed       	ldi	r28, 0xD8	; 216
     110:	d0 e0       	ldi	r29, 0x00	; 0
     112:	04 c0       	rjmp	.+8      	; 0x11c <.do_global_ctors_start>

00000114 <.do_global_ctors_loop>:
     114:	22 97       	sbiw	r28, 0x02	; 2
     116:	fe 01       	movw	r30, r28
     118:	0e 94 a2 1f 	call	0x3f44	; 0x3f44 <__tablejump__>

0000011c <.do_global_ctors_start>:
     11c:	c2 3d       	cpi	r28, 0xD2	; 210
     11e:	d1 07       	cpc	r29, r17
     120:	c9 f7       	brne	.-14     	; 0x114 <.do_global_ctors_loop>
     122:	0e 94 4b 1d 	call	0x3a96	; 0x3a96 <main>
     126:	0c 94 a6 1f 	jmp	0x3f4c	; 0x3f4c <__do_global_dtors>

0000012a <__bad_interrupt>:
     12a:	6a cf       	rjmp	.-300    	; 0x0 <__vectors>

0000012c <memcmp>:
     12c:	fb 01       	movw	r30, r22
     12e:	dc 01       	movw	r26, r24
     130:	04 c0       	rjmp	.+8      	; 0x13a <memcmp+0xe>
     132:	8d 91       	ld	r24, X+
     134:	01 90       	ld	r0, Z+
     136:	80 19       	sub	r24, r0
     138:	21 f4       	brne	.+8      	; 0x142 <memcmp+0x16>
     13a:	41 50       	subi	r20, 0x01	; 1
     13c:	50 40       	sbci	r21, 0x00	; 0
     13e:	c8 f7       	brcc	.-14     	; 0x132 <memcmp+0x6>
     140:	88 1b       	sub	r24, r24
     142:	99 0b       	sbc	r25, r25
     144:	08 95       	ret

00000146 <strchr>:
     146:	fc 01       	movw	r30, r24
     148:	81 91       	ld	r24, Z+
     14a:	86 17       	cp	r24, r22
     14c:	21 f0       	breq	.+8      	; 0x156 <strchr+0x10>
     14e:	88 23       	and	r24, r24
     150:	d9 f7       	brne	.-10     	; 0x148 <strchr+0x2>
     152:	99 27       	eor	r25, r25
     154:	08 95       	ret
     156:	31 97       	sbiw	r30, 0x01	; 1
     158:	cf 01       	movw	r24, r30
     15a:	08 95       	ret

0000015c <strcpy>:
     15c:	fb 01       	movw	r30, r22
     15e:	dc 01       	movw	r26, r24
     160:	01 90       	ld	r0, Z+
     162:	0d 92       	st	X+, r0
     164:	00 20       	and	r0, r0
     166:	e1 f7       	brne	.-8      	; 0x160 <strcpy+0x4>
     168:	08 95       	ret

0000016a <strncpy>:
     16a:	fb 01       	movw	r30, r22
     16c:	dc 01       	movw	r26, r24
     16e:	41 50       	subi	r20, 0x01	; 1
     170:	50 40       	sbci	r21, 0x00	; 0
     172:	48 f0       	brcs	.+18     	; 0x186 <strncpy+0x1c>
     174:	01 90       	ld	r0, Z+
     176:	0d 92       	st	X+, r0
     178:	00 20       	and	r0, r0
     17a:	c9 f7       	brne	.-14     	; 0x16e <strncpy+0x4>
     17c:	01 c0       	rjmp	.+2      	; 0x180 <strncpy+0x16>
     17e:	1d 92       	st	X+, r1
     180:	41 50       	subi	r20, 0x01	; 1
     182:	50 40       	sbci	r21, 0x00	; 0
     184:	e0 f7       	brcc	.-8      	; 0x17e <strncpy+0x14>
     186:	08 95       	ret

00000188 <sprintf>:
     188:	ae e0       	ldi	r26, 0x0E	; 14
     18a:	b0 e0       	ldi	r27, 0x00	; 0
     18c:	ea ec       	ldi	r30, 0xCA	; 202
     18e:	f0 e0       	ldi	r31, 0x00	; 0
     190:	0c 94 77 1f 	jmp	0x3eee	; 0x3eee <__prologue_saves__+0x1c>
     194:	0d 89       	ldd	r16, Y+21	; 0x15
     196:	1e 89       	ldd	r17, Y+22	; 0x16
     198:	86 e0       	ldi	r24, 0x06	; 6
     19a:	8c 83       	std	Y+4, r24	; 0x04
     19c:	1a 83       	std	Y+2, r17	; 0x02
     19e:	09 83       	std	Y+1, r16	; 0x01
     1a0:	8f ef       	ldi	r24, 0xFF	; 255
     1a2:	9f e7       	ldi	r25, 0x7F	; 127
     1a4:	9e 83       	std	Y+6, r25	; 0x06
     1a6:	8d 83       	std	Y+5, r24	; 0x05
     1a8:	9e 01       	movw	r18, r28
     1aa:	27 5e       	subi	r18, 0xE7	; 231
     1ac:	3f 4f       	sbci	r19, 0xFF	; 255
     1ae:	ce 01       	movw	r24, r28
     1b0:	01 96       	adiw	r24, 0x01	; 1
     1b2:	6f 89       	ldd	r22, Y+23	; 0x17
     1b4:	78 8d       	ldd	r23, Y+24	; 0x18
     1b6:	a9 01       	movw	r20, r18
     1b8:	0a d0       	rcall	.+20     	; 0x1ce <vfprintf>
     1ba:	2f 81       	ldd	r18, Y+7	; 0x07
     1bc:	38 85       	ldd	r19, Y+8	; 0x08
     1be:	02 0f       	add	r16, r18
     1c0:	13 1f       	adc	r17, r19
     1c2:	f8 01       	movw	r30, r16
     1c4:	10 82       	st	Z, r1
     1c6:	2e 96       	adiw	r28, 0x0e	; 14
     1c8:	e4 e0       	ldi	r30, 0x04	; 4
     1ca:	0c 94 93 1f 	jmp	0x3f26	; 0x3f26 <__epilogue_restores__+0x1c>

000001ce <vfprintf>:
     1ce:	ab e0       	ldi	r26, 0x0B	; 11
     1d0:	b0 e0       	ldi	r27, 0x00	; 0
     1d2:	ed ee       	ldi	r30, 0xED	; 237
     1d4:	f0 e0       	ldi	r31, 0x00	; 0
     1d6:	0c 94 69 1f 	jmp	0x3ed2	; 0x3ed2 <__prologue_saves__>
     1da:	3c 01       	movw	r6, r24
     1dc:	2b 01       	movw	r4, r22
     1de:	5a 01       	movw	r10, r20
     1e0:	fc 01       	movw	r30, r24
     1e2:	17 82       	std	Z+7, r1	; 0x07
     1e4:	16 82       	std	Z+6, r1	; 0x06
     1e6:	83 81       	ldd	r24, Z+3	; 0x03
     1e8:	81 fd       	sbrc	r24, 1
     1ea:	03 c0       	rjmp	.+6      	; 0x1f2 <vfprintf+0x24>
     1ec:	6f ef       	ldi	r22, 0xFF	; 255
     1ee:	7f ef       	ldi	r23, 0xFF	; 255
     1f0:	b9 c1       	rjmp	.+882    	; 0x564 <vfprintf+0x396>
     1f2:	9a e0       	ldi	r25, 0x0A	; 10
     1f4:	89 2e       	mov	r8, r25
     1f6:	1e 01       	movw	r2, r28
     1f8:	08 94       	sec
     1fa:	21 1c       	adc	r2, r1
     1fc:	31 1c       	adc	r3, r1
     1fe:	f3 01       	movw	r30, r6
     200:	23 81       	ldd	r18, Z+3	; 0x03
     202:	f2 01       	movw	r30, r4
     204:	23 fd       	sbrc	r18, 3
     206:	85 91       	lpm	r24, Z+
     208:	23 ff       	sbrs	r18, 3
     20a:	81 91       	ld	r24, Z+
     20c:	2f 01       	movw	r4, r30
     20e:	88 23       	and	r24, r24
     210:	09 f4       	brne	.+2      	; 0x214 <vfprintf+0x46>
     212:	a5 c1       	rjmp	.+842    	; 0x55e <vfprintf+0x390>
     214:	85 32       	cpi	r24, 0x25	; 37
     216:	39 f4       	brne	.+14     	; 0x226 <vfprintf+0x58>
     218:	23 fd       	sbrc	r18, 3
     21a:	85 91       	lpm	r24, Z+
     21c:	23 ff       	sbrs	r18, 3
     21e:	81 91       	ld	r24, Z+
     220:	2f 01       	movw	r4, r30
     222:	85 32       	cpi	r24, 0x25	; 37
     224:	21 f4       	brne	.+8      	; 0x22e <vfprintf+0x60>
     226:	90 e0       	ldi	r25, 0x00	; 0
     228:	b3 01       	movw	r22, r6
     22a:	b7 d1       	rcall	.+878    	; 0x59a <fputc>
     22c:	e8 cf       	rjmp	.-48     	; 0x1fe <vfprintf+0x30>
     22e:	98 2f       	mov	r25, r24
     230:	ff 24       	eor	r15, r15
     232:	ee 24       	eor	r14, r14
     234:	99 24       	eor	r9, r9
     236:	ff e1       	ldi	r31, 0x1F	; 31
     238:	ff 15       	cp	r31, r15
     23a:	d0 f0       	brcs	.+52     	; 0x270 <vfprintf+0xa2>
     23c:	9b 32       	cpi	r25, 0x2B	; 43
     23e:	69 f0       	breq	.+26     	; 0x25a <vfprintf+0x8c>
     240:	9c 32       	cpi	r25, 0x2C	; 44
     242:	28 f4       	brcc	.+10     	; 0x24e <vfprintf+0x80>
     244:	90 32       	cpi	r25, 0x20	; 32
     246:	59 f0       	breq	.+22     	; 0x25e <vfprintf+0x90>
     248:	93 32       	cpi	r25, 0x23	; 35
     24a:	91 f4       	brne	.+36     	; 0x270 <vfprintf+0xa2>
     24c:	0e c0       	rjmp	.+28     	; 0x26a <vfprintf+0x9c>
     24e:	9d 32       	cpi	r25, 0x2D	; 45
     250:	49 f0       	breq	.+18     	; 0x264 <vfprintf+0x96>
     252:	90 33       	cpi	r25, 0x30	; 48
     254:	69 f4       	brne	.+26     	; 0x270 <vfprintf+0xa2>
     256:	41 e0       	ldi	r20, 0x01	; 1
     258:	24 c0       	rjmp	.+72     	; 0x2a2 <vfprintf+0xd4>
     25a:	52 e0       	ldi	r21, 0x02	; 2
     25c:	f5 2a       	or	r15, r21
     25e:	84 e0       	ldi	r24, 0x04	; 4
     260:	f8 2a       	or	r15, r24
     262:	28 c0       	rjmp	.+80     	; 0x2b4 <vfprintf+0xe6>
     264:	98 e0       	ldi	r25, 0x08	; 8
     266:	f9 2a       	or	r15, r25
     268:	25 c0       	rjmp	.+74     	; 0x2b4 <vfprintf+0xe6>
     26a:	e0 e1       	ldi	r30, 0x10	; 16
     26c:	fe 2a       	or	r15, r30
     26e:	22 c0       	rjmp	.+68     	; 0x2b4 <vfprintf+0xe6>
     270:	f7 fc       	sbrc	r15, 7
     272:	29 c0       	rjmp	.+82     	; 0x2c6 <vfprintf+0xf8>
     274:	89 2f       	mov	r24, r25
     276:	80 53       	subi	r24, 0x30	; 48
     278:	8a 30       	cpi	r24, 0x0A	; 10
     27a:	70 f4       	brcc	.+28     	; 0x298 <vfprintf+0xca>
     27c:	f6 fe       	sbrs	r15, 6
     27e:	05 c0       	rjmp	.+10     	; 0x28a <vfprintf+0xbc>
     280:	98 9c       	mul	r9, r8
     282:	90 2c       	mov	r9, r0
     284:	11 24       	eor	r1, r1
     286:	98 0e       	add	r9, r24
     288:	15 c0       	rjmp	.+42     	; 0x2b4 <vfprintf+0xe6>
     28a:	e8 9c       	mul	r14, r8
     28c:	e0 2c       	mov	r14, r0
     28e:	11 24       	eor	r1, r1
     290:	e8 0e       	add	r14, r24
     292:	f0 e2       	ldi	r31, 0x20	; 32
     294:	ff 2a       	or	r15, r31
     296:	0e c0       	rjmp	.+28     	; 0x2b4 <vfprintf+0xe6>
     298:	9e 32       	cpi	r25, 0x2E	; 46
     29a:	29 f4       	brne	.+10     	; 0x2a6 <vfprintf+0xd8>
     29c:	f6 fc       	sbrc	r15, 6
     29e:	5f c1       	rjmp	.+702    	; 0x55e <vfprintf+0x390>
     2a0:	40 e4       	ldi	r20, 0x40	; 64
     2a2:	f4 2a       	or	r15, r20
     2a4:	07 c0       	rjmp	.+14     	; 0x2b4 <vfprintf+0xe6>
     2a6:	9c 36       	cpi	r25, 0x6C	; 108
     2a8:	19 f4       	brne	.+6      	; 0x2b0 <vfprintf+0xe2>
     2aa:	50 e8       	ldi	r21, 0x80	; 128
     2ac:	f5 2a       	or	r15, r21
     2ae:	02 c0       	rjmp	.+4      	; 0x2b4 <vfprintf+0xe6>
     2b0:	98 36       	cpi	r25, 0x68	; 104
     2b2:	49 f4       	brne	.+18     	; 0x2c6 <vfprintf+0xf8>
     2b4:	f2 01       	movw	r30, r4
     2b6:	23 fd       	sbrc	r18, 3
     2b8:	95 91       	lpm	r25, Z+
     2ba:	23 ff       	sbrs	r18, 3
     2bc:	91 91       	ld	r25, Z+
     2be:	2f 01       	movw	r4, r30
     2c0:	99 23       	and	r25, r25
     2c2:	09 f0       	breq	.+2      	; 0x2c6 <vfprintf+0xf8>
     2c4:	b8 cf       	rjmp	.-144    	; 0x236 <vfprintf+0x68>
     2c6:	89 2f       	mov	r24, r25
     2c8:	85 54       	subi	r24, 0x45	; 69
     2ca:	83 30       	cpi	r24, 0x03	; 3
     2cc:	18 f0       	brcs	.+6      	; 0x2d4 <vfprintf+0x106>
     2ce:	80 52       	subi	r24, 0x20	; 32
     2d0:	83 30       	cpi	r24, 0x03	; 3
     2d2:	38 f4       	brcc	.+14     	; 0x2e2 <vfprintf+0x114>
     2d4:	44 e0       	ldi	r20, 0x04	; 4
     2d6:	50 e0       	ldi	r21, 0x00	; 0
     2d8:	a4 0e       	add	r10, r20
     2da:	b5 1e       	adc	r11, r21
     2dc:	5f e3       	ldi	r21, 0x3F	; 63
     2de:	59 83       	std	Y+1, r21	; 0x01
     2e0:	0f c0       	rjmp	.+30     	; 0x300 <vfprintf+0x132>
     2e2:	93 36       	cpi	r25, 0x63	; 99
     2e4:	31 f0       	breq	.+12     	; 0x2f2 <vfprintf+0x124>
     2e6:	93 37       	cpi	r25, 0x73	; 115
     2e8:	79 f0       	breq	.+30     	; 0x308 <vfprintf+0x13a>
     2ea:	93 35       	cpi	r25, 0x53	; 83
     2ec:	09 f0       	breq	.+2      	; 0x2f0 <vfprintf+0x122>
     2ee:	52 c0       	rjmp	.+164    	; 0x394 <vfprintf+0x1c6>
     2f0:	1f c0       	rjmp	.+62     	; 0x330 <vfprintf+0x162>
     2f2:	f5 01       	movw	r30, r10
     2f4:	80 81       	ld	r24, Z
     2f6:	89 83       	std	Y+1, r24	; 0x01
     2f8:	42 e0       	ldi	r20, 0x02	; 2
     2fa:	50 e0       	ldi	r21, 0x00	; 0
     2fc:	a4 0e       	add	r10, r20
     2fe:	b5 1e       	adc	r11, r21
     300:	61 01       	movw	r12, r2
     302:	01 e0       	ldi	r16, 0x01	; 1
     304:	10 e0       	ldi	r17, 0x00	; 0
     306:	11 c0       	rjmp	.+34     	; 0x32a <vfprintf+0x15c>
     308:	f5 01       	movw	r30, r10
     30a:	c0 80       	ld	r12, Z
     30c:	d1 80       	ldd	r13, Z+1	; 0x01
     30e:	f6 fc       	sbrc	r15, 6
     310:	03 c0       	rjmp	.+6      	; 0x318 <vfprintf+0x14a>
     312:	6f ef       	ldi	r22, 0xFF	; 255
     314:	7f ef       	ldi	r23, 0xFF	; 255
     316:	02 c0       	rjmp	.+4      	; 0x31c <vfprintf+0x14e>
     318:	69 2d       	mov	r22, r9
     31a:	70 e0       	ldi	r23, 0x00	; 0
     31c:	42 e0       	ldi	r20, 0x02	; 2
     31e:	50 e0       	ldi	r21, 0x00	; 0
     320:	a4 0e       	add	r10, r20
     322:	b5 1e       	adc	r11, r21
     324:	c6 01       	movw	r24, r12
     326:	2e d1       	rcall	.+604    	; 0x584 <strnlen>
     328:	8c 01       	movw	r16, r24
     32a:	5f e7       	ldi	r21, 0x7F	; 127
     32c:	f5 22       	and	r15, r21
     32e:	13 c0       	rjmp	.+38     	; 0x356 <vfprintf+0x188>
     330:	f5 01       	movw	r30, r10
     332:	c0 80       	ld	r12, Z
     334:	d1 80       	ldd	r13, Z+1	; 0x01
     336:	f6 fc       	sbrc	r15, 6
     338:	03 c0       	rjmp	.+6      	; 0x340 <vfprintf+0x172>
     33a:	6f ef       	ldi	r22, 0xFF	; 255
     33c:	7f ef       	ldi	r23, 0xFF	; 255
     33e:	02 c0       	rjmp	.+4      	; 0x344 <vfprintf+0x176>
     340:	69 2d       	mov	r22, r9
     342:	70 e0       	ldi	r23, 0x00	; 0
     344:	42 e0       	ldi	r20, 0x02	; 2
     346:	50 e0       	ldi	r21, 0x00	; 0
     348:	a4 0e       	add	r10, r20
     34a:	b5 1e       	adc	r11, r21
     34c:	c6 01       	movw	r24, r12
     34e:	0f d1       	rcall	.+542    	; 0x56e <strnlen_P>
     350:	8c 01       	movw	r16, r24
     352:	50 e8       	ldi	r21, 0x80	; 128
     354:	f5 2a       	or	r15, r21
     356:	f3 fe       	sbrs	r15, 3
     358:	06 c0       	rjmp	.+12     	; 0x366 <vfprintf+0x198>
     35a:	18 c0       	rjmp	.+48     	; 0x38c <vfprintf+0x1be>
     35c:	80 e2       	ldi	r24, 0x20	; 32
     35e:	90 e0       	ldi	r25, 0x00	; 0
     360:	b3 01       	movw	r22, r6
     362:	1b d1       	rcall	.+566    	; 0x59a <fputc>
     364:	ea 94       	dec	r14
     366:	8e 2d       	mov	r24, r14
     368:	90 e0       	ldi	r25, 0x00	; 0
     36a:	08 17       	cp	r16, r24
     36c:	19 07       	cpc	r17, r25
     36e:	b0 f3       	brcs	.-20     	; 0x35c <vfprintf+0x18e>
     370:	0d c0       	rjmp	.+26     	; 0x38c <vfprintf+0x1be>
     372:	f6 01       	movw	r30, r12
     374:	f7 fc       	sbrc	r15, 7
     376:	85 91       	lpm	r24, Z+
     378:	f7 fe       	sbrs	r15, 7
     37a:	81 91       	ld	r24, Z+
     37c:	6f 01       	movw	r12, r30
     37e:	90 e0       	ldi	r25, 0x00	; 0
     380:	b3 01       	movw	r22, r6
     382:	0b d1       	rcall	.+534    	; 0x59a <fputc>
     384:	e1 10       	cpse	r14, r1
     386:	ea 94       	dec	r14
     388:	01 50       	subi	r16, 0x01	; 1
     38a:	10 40       	sbci	r17, 0x00	; 0
     38c:	01 15       	cp	r16, r1
     38e:	11 05       	cpc	r17, r1
     390:	81 f7       	brne	.-32     	; 0x372 <vfprintf+0x1a4>
     392:	e2 c0       	rjmp	.+452    	; 0x558 <vfprintf+0x38a>
     394:	94 36       	cpi	r25, 0x64	; 100
     396:	11 f0       	breq	.+4      	; 0x39c <vfprintf+0x1ce>
     398:	99 36       	cpi	r25, 0x69	; 105
     39a:	61 f5       	brne	.+88     	; 0x3f4 <vfprintf+0x226>
     39c:	f7 fe       	sbrs	r15, 7
     39e:	08 c0       	rjmp	.+16     	; 0x3b0 <vfprintf+0x1e2>
     3a0:	f5 01       	movw	r30, r10
     3a2:	20 81       	ld	r18, Z
     3a4:	31 81       	ldd	r19, Z+1	; 0x01
     3a6:	42 81       	ldd	r20, Z+2	; 0x02
     3a8:	53 81       	ldd	r21, Z+3	; 0x03
     3aa:	84 e0       	ldi	r24, 0x04	; 4
     3ac:	90 e0       	ldi	r25, 0x00	; 0
     3ae:	0a c0       	rjmp	.+20     	; 0x3c4 <vfprintf+0x1f6>
     3b0:	f5 01       	movw	r30, r10
     3b2:	80 81       	ld	r24, Z
     3b4:	91 81       	ldd	r25, Z+1	; 0x01
     3b6:	9c 01       	movw	r18, r24
     3b8:	44 27       	eor	r20, r20
     3ba:	37 fd       	sbrc	r19, 7
     3bc:	40 95       	com	r20
     3be:	54 2f       	mov	r21, r20
     3c0:	82 e0       	ldi	r24, 0x02	; 2
     3c2:	90 e0       	ldi	r25, 0x00	; 0
     3c4:	a8 0e       	add	r10, r24
     3c6:	b9 1e       	adc	r11, r25
     3c8:	9f e6       	ldi	r25, 0x6F	; 111
     3ca:	f9 22       	and	r15, r25
     3cc:	57 ff       	sbrs	r21, 7
     3ce:	09 c0       	rjmp	.+18     	; 0x3e2 <vfprintf+0x214>
     3d0:	50 95       	com	r21
     3d2:	40 95       	com	r20
     3d4:	30 95       	com	r19
     3d6:	21 95       	neg	r18
     3d8:	3f 4f       	sbci	r19, 0xFF	; 255
     3da:	4f 4f       	sbci	r20, 0xFF	; 255
     3dc:	5f 4f       	sbci	r21, 0xFF	; 255
     3de:	e0 e8       	ldi	r30, 0x80	; 128
     3e0:	fe 2a       	or	r15, r30
     3e2:	ca 01       	movw	r24, r20
     3e4:	b9 01       	movw	r22, r18
     3e6:	a1 01       	movw	r20, r2
     3e8:	2a e0       	ldi	r18, 0x0A	; 10
     3ea:	30 e0       	ldi	r19, 0x00	; 0
     3ec:	02 d1       	rcall	.+516    	; 0x5f2 <__ultoa_invert>
     3ee:	d8 2e       	mov	r13, r24
     3f0:	d2 18       	sub	r13, r2
     3f2:	3f c0       	rjmp	.+126    	; 0x472 <vfprintf+0x2a4>
     3f4:	95 37       	cpi	r25, 0x75	; 117
     3f6:	29 f4       	brne	.+10     	; 0x402 <vfprintf+0x234>
     3f8:	1f 2d       	mov	r17, r15
     3fa:	1f 7e       	andi	r17, 0xEF	; 239
     3fc:	2a e0       	ldi	r18, 0x0A	; 10
     3fe:	30 e0       	ldi	r19, 0x00	; 0
     400:	1d c0       	rjmp	.+58     	; 0x43c <vfprintf+0x26e>
     402:	1f 2d       	mov	r17, r15
     404:	19 7f       	andi	r17, 0xF9	; 249
     406:	9f 36       	cpi	r25, 0x6F	; 111
     408:	61 f0       	breq	.+24     	; 0x422 <vfprintf+0x254>
     40a:	90 37       	cpi	r25, 0x70	; 112
     40c:	20 f4       	brcc	.+8      	; 0x416 <vfprintf+0x248>
     40e:	98 35       	cpi	r25, 0x58	; 88
     410:	09 f0       	breq	.+2      	; 0x414 <vfprintf+0x246>
     412:	a5 c0       	rjmp	.+330    	; 0x55e <vfprintf+0x390>
     414:	0f c0       	rjmp	.+30     	; 0x434 <vfprintf+0x266>
     416:	90 37       	cpi	r25, 0x70	; 112
     418:	39 f0       	breq	.+14     	; 0x428 <vfprintf+0x25a>
     41a:	98 37       	cpi	r25, 0x78	; 120
     41c:	09 f0       	breq	.+2      	; 0x420 <vfprintf+0x252>
     41e:	9f c0       	rjmp	.+318    	; 0x55e <vfprintf+0x390>
     420:	04 c0       	rjmp	.+8      	; 0x42a <vfprintf+0x25c>
     422:	28 e0       	ldi	r18, 0x08	; 8
     424:	30 e0       	ldi	r19, 0x00	; 0
     426:	0a c0       	rjmp	.+20     	; 0x43c <vfprintf+0x26e>
     428:	10 61       	ori	r17, 0x10	; 16
     42a:	14 fd       	sbrc	r17, 4
     42c:	14 60       	ori	r17, 0x04	; 4
     42e:	20 e1       	ldi	r18, 0x10	; 16
     430:	30 e0       	ldi	r19, 0x00	; 0
     432:	04 c0       	rjmp	.+8      	; 0x43c <vfprintf+0x26e>
     434:	14 fd       	sbrc	r17, 4
     436:	16 60       	ori	r17, 0x06	; 6
     438:	20 e1       	ldi	r18, 0x10	; 16
     43a:	32 e0       	ldi	r19, 0x02	; 2
     43c:	17 ff       	sbrs	r17, 7
     43e:	08 c0       	rjmp	.+16     	; 0x450 <vfprintf+0x282>
     440:	f5 01       	movw	r30, r10
     442:	60 81       	ld	r22, Z
     444:	71 81       	ldd	r23, Z+1	; 0x01
     446:	82 81       	ldd	r24, Z+2	; 0x02
     448:	93 81       	ldd	r25, Z+3	; 0x03
     44a:	44 e0       	ldi	r20, 0x04	; 4
     44c:	50 e0       	ldi	r21, 0x00	; 0
     44e:	08 c0       	rjmp	.+16     	; 0x460 <vfprintf+0x292>
     450:	f5 01       	movw	r30, r10
     452:	80 81       	ld	r24, Z
     454:	91 81       	ldd	r25, Z+1	; 0x01
     456:	bc 01       	movw	r22, r24
     458:	80 e0       	ldi	r24, 0x00	; 0
     45a:	90 e0       	ldi	r25, 0x00	; 0
     45c:	42 e0       	ldi	r20, 0x02	; 2
     45e:	50 e0       	ldi	r21, 0x00	; 0
     460:	a4 0e       	add	r10, r20
     462:	b5 1e       	adc	r11, r21
     464:	a1 01       	movw	r20, r2
     466:	c5 d0       	rcall	.+394    	; 0x5f2 <__ultoa_invert>
     468:	d8 2e       	mov	r13, r24
     46a:	d2 18       	sub	r13, r2
     46c:	8f e7       	ldi	r24, 0x7F	; 127
     46e:	f8 2e       	mov	r15, r24
     470:	f1 22       	and	r15, r17
     472:	f6 fe       	sbrs	r15, 6
     474:	0b c0       	rjmp	.+22     	; 0x48c <vfprintf+0x2be>
     476:	5e ef       	ldi	r21, 0xFE	; 254
     478:	f5 22       	and	r15, r21
     47a:	d9 14       	cp	r13, r9
     47c:	38 f4       	brcc	.+14     	; 0x48c <vfprintf+0x2be>
     47e:	f4 fe       	sbrs	r15, 4
     480:	07 c0       	rjmp	.+14     	; 0x490 <vfprintf+0x2c2>
     482:	f2 fc       	sbrc	r15, 2
     484:	05 c0       	rjmp	.+10     	; 0x490 <vfprintf+0x2c2>
     486:	8f ee       	ldi	r24, 0xEF	; 239
     488:	f8 22       	and	r15, r24
     48a:	02 c0       	rjmp	.+4      	; 0x490 <vfprintf+0x2c2>
     48c:	1d 2d       	mov	r17, r13
     48e:	01 c0       	rjmp	.+2      	; 0x492 <vfprintf+0x2c4>
     490:	19 2d       	mov	r17, r9
     492:	f4 fe       	sbrs	r15, 4
     494:	0d c0       	rjmp	.+26     	; 0x4b0 <vfprintf+0x2e2>
     496:	fe 01       	movw	r30, r28
     498:	ed 0d       	add	r30, r13
     49a:	f1 1d       	adc	r31, r1
     49c:	80 81       	ld	r24, Z
     49e:	80 33       	cpi	r24, 0x30	; 48
     4a0:	19 f4       	brne	.+6      	; 0x4a8 <vfprintf+0x2da>
     4a2:	99 ee       	ldi	r25, 0xE9	; 233
     4a4:	f9 22       	and	r15, r25
     4a6:	08 c0       	rjmp	.+16     	; 0x4b8 <vfprintf+0x2ea>
     4a8:	1f 5f       	subi	r17, 0xFF	; 255
     4aa:	f2 fe       	sbrs	r15, 2
     4ac:	05 c0       	rjmp	.+10     	; 0x4b8 <vfprintf+0x2ea>
     4ae:	03 c0       	rjmp	.+6      	; 0x4b6 <vfprintf+0x2e8>
     4b0:	8f 2d       	mov	r24, r15
     4b2:	86 78       	andi	r24, 0x86	; 134
     4b4:	09 f0       	breq	.+2      	; 0x4b8 <vfprintf+0x2ea>
     4b6:	1f 5f       	subi	r17, 0xFF	; 255
     4b8:	0f 2d       	mov	r16, r15
     4ba:	f3 fc       	sbrc	r15, 3
     4bc:	13 c0       	rjmp	.+38     	; 0x4e4 <vfprintf+0x316>
     4be:	f0 fe       	sbrs	r15, 0
     4c0:	0e c0       	rjmp	.+28     	; 0x4de <vfprintf+0x310>
     4c2:	1e 15       	cp	r17, r14
     4c4:	10 f0       	brcs	.+4      	; 0x4ca <vfprintf+0x2fc>
     4c6:	9d 2c       	mov	r9, r13
     4c8:	0a c0       	rjmp	.+20     	; 0x4de <vfprintf+0x310>
     4ca:	9d 2c       	mov	r9, r13
     4cc:	9e 0c       	add	r9, r14
     4ce:	91 1a       	sub	r9, r17
     4d0:	1e 2d       	mov	r17, r14
     4d2:	05 c0       	rjmp	.+10     	; 0x4de <vfprintf+0x310>
     4d4:	80 e2       	ldi	r24, 0x20	; 32
     4d6:	90 e0       	ldi	r25, 0x00	; 0
     4d8:	b3 01       	movw	r22, r6
     4da:	5f d0       	rcall	.+190    	; 0x59a <fputc>
     4dc:	1f 5f       	subi	r17, 0xFF	; 255
     4de:	1e 15       	cp	r17, r14
     4e0:	c8 f3       	brcs	.-14     	; 0x4d4 <vfprintf+0x306>
     4e2:	04 c0       	rjmp	.+8      	; 0x4ec <vfprintf+0x31e>
     4e4:	1e 15       	cp	r17, r14
     4e6:	10 f4       	brcc	.+4      	; 0x4ec <vfprintf+0x31e>
     4e8:	e1 1a       	sub	r14, r17
     4ea:	01 c0       	rjmp	.+2      	; 0x4ee <vfprintf+0x320>
     4ec:	ee 24       	eor	r14, r14
     4ee:	04 ff       	sbrs	r16, 4
     4f0:	0e c0       	rjmp	.+28     	; 0x50e <vfprintf+0x340>
     4f2:	80 e3       	ldi	r24, 0x30	; 48
     4f4:	90 e0       	ldi	r25, 0x00	; 0
     4f6:	b3 01       	movw	r22, r6
     4f8:	50 d0       	rcall	.+160    	; 0x59a <fputc>
     4fa:	02 ff       	sbrs	r16, 2
     4fc:	1b c0       	rjmp	.+54     	; 0x534 <vfprintf+0x366>
     4fe:	01 fd       	sbrc	r16, 1
     500:	03 c0       	rjmp	.+6      	; 0x508 <vfprintf+0x33a>
     502:	88 e7       	ldi	r24, 0x78	; 120
     504:	90 e0       	ldi	r25, 0x00	; 0
     506:	0e c0       	rjmp	.+28     	; 0x524 <vfprintf+0x356>
     508:	88 e5       	ldi	r24, 0x58	; 88
     50a:	90 e0       	ldi	r25, 0x00	; 0
     50c:	0b c0       	rjmp	.+22     	; 0x524 <vfprintf+0x356>
     50e:	80 2f       	mov	r24, r16
     510:	86 78       	andi	r24, 0x86	; 134
     512:	81 f0       	breq	.+32     	; 0x534 <vfprintf+0x366>
     514:	01 ff       	sbrs	r16, 1
     516:	02 c0       	rjmp	.+4      	; 0x51c <vfprintf+0x34e>
     518:	8b e2       	ldi	r24, 0x2B	; 43
     51a:	01 c0       	rjmp	.+2      	; 0x51e <vfprintf+0x350>
     51c:	80 e2       	ldi	r24, 0x20	; 32
     51e:	f7 fc       	sbrc	r15, 7
     520:	8d e2       	ldi	r24, 0x2D	; 45
     522:	90 e0       	ldi	r25, 0x00	; 0
     524:	b3 01       	movw	r22, r6
     526:	39 d0       	rcall	.+114    	; 0x59a <fputc>
     528:	05 c0       	rjmp	.+10     	; 0x534 <vfprintf+0x366>
     52a:	80 e3       	ldi	r24, 0x30	; 48
     52c:	90 e0       	ldi	r25, 0x00	; 0
     52e:	b3 01       	movw	r22, r6
     530:	34 d0       	rcall	.+104    	; 0x59a <fputc>
     532:	9a 94       	dec	r9
     534:	d9 14       	cp	r13, r9
     536:	c8 f3       	brcs	.-14     	; 0x52a <vfprintf+0x35c>
     538:	da 94       	dec	r13
     53a:	f1 01       	movw	r30, r2
     53c:	ed 0d       	add	r30, r13
     53e:	f1 1d       	adc	r31, r1
     540:	80 81       	ld	r24, Z
     542:	90 e0       	ldi	r25, 0x00	; 0
     544:	b3 01       	movw	r22, r6
     546:	29 d0       	rcall	.+82     	; 0x59a <fputc>
     548:	dd 20       	and	r13, r13
     54a:	b1 f7       	brne	.-20     	; 0x538 <vfprintf+0x36a>
     54c:	05 c0       	rjmp	.+10     	; 0x558 <vfprintf+0x38a>
     54e:	80 e2       	ldi	r24, 0x20	; 32
     550:	90 e0       	ldi	r25, 0x00	; 0
     552:	b3 01       	movw	r22, r6
     554:	22 d0       	rcall	.+68     	; 0x59a <fputc>
     556:	ea 94       	dec	r14
     558:	ee 20       	and	r14, r14
     55a:	c9 f7       	brne	.-14     	; 0x54e <vfprintf+0x380>
     55c:	50 ce       	rjmp	.-864    	; 0x1fe <vfprintf+0x30>
     55e:	f3 01       	movw	r30, r6
     560:	66 81       	ldd	r22, Z+6	; 0x06
     562:	77 81       	ldd	r23, Z+7	; 0x07
     564:	cb 01       	movw	r24, r22
     566:	2b 96       	adiw	r28, 0x0b	; 11
     568:	e2 e1       	ldi	r30, 0x12	; 18
     56a:	0c 94 85 1f 	jmp	0x3f0a	; 0x3f0a <__epilogue_restores__>

0000056e <strnlen_P>:
     56e:	fc 01       	movw	r30, r24
     570:	05 90       	lpm	r0, Z+
     572:	61 50       	subi	r22, 0x01	; 1
     574:	70 40       	sbci	r23, 0x00	; 0
     576:	01 10       	cpse	r0, r1
     578:	d8 f7       	brcc	.-10     	; 0x570 <strnlen_P+0x2>
     57a:	80 95       	com	r24
     57c:	90 95       	com	r25
     57e:	8e 0f       	add	r24, r30
     580:	9f 1f       	adc	r25, r31
     582:	08 95       	ret

00000584 <strnlen>:
     584:	fc 01       	movw	r30, r24
     586:	61 50       	subi	r22, 0x01	; 1
     588:	70 40       	sbci	r23, 0x00	; 0
     58a:	01 90       	ld	r0, Z+
     58c:	01 10       	cpse	r0, r1
     58e:	d8 f7       	brcc	.-10     	; 0x586 <strnlen+0x2>
     590:	80 95       	com	r24
     592:	90 95       	com	r25
     594:	8e 0f       	add	r24, r30
     596:	9f 1f       	adc	r25, r31
     598:	08 95       	ret

0000059a <fputc>:
     59a:	0f 93       	push	r16
     59c:	1f 93       	push	r17
     59e:	cf 93       	push	r28
     5a0:	df 93       	push	r29
     5a2:	8c 01       	movw	r16, r24
     5a4:	eb 01       	movw	r28, r22
     5a6:	8b 81       	ldd	r24, Y+3	; 0x03
     5a8:	81 ff       	sbrs	r24, 1
     5aa:	1b c0       	rjmp	.+54     	; 0x5e2 <fputc+0x48>
     5ac:	82 ff       	sbrs	r24, 2
     5ae:	0d c0       	rjmp	.+26     	; 0x5ca <fputc+0x30>
     5b0:	2e 81       	ldd	r18, Y+6	; 0x06
     5b2:	3f 81       	ldd	r19, Y+7	; 0x07
     5b4:	8c 81       	ldd	r24, Y+4	; 0x04
     5b6:	9d 81       	ldd	r25, Y+5	; 0x05
     5b8:	28 17       	cp	r18, r24
     5ba:	39 07       	cpc	r19, r25
     5bc:	64 f4       	brge	.+24     	; 0x5d6 <fputc+0x3c>
     5be:	e8 81       	ld	r30, Y
     5c0:	f9 81       	ldd	r31, Y+1	; 0x01
     5c2:	01 93       	st	Z+, r16
     5c4:	f9 83       	std	Y+1, r31	; 0x01
     5c6:	e8 83       	st	Y, r30
     5c8:	06 c0       	rjmp	.+12     	; 0x5d6 <fputc+0x3c>
     5ca:	e8 85       	ldd	r30, Y+8	; 0x08
     5cc:	f9 85       	ldd	r31, Y+9	; 0x09
     5ce:	80 2f       	mov	r24, r16
     5d0:	09 95       	icall
     5d2:	89 2b       	or	r24, r25
     5d4:	31 f4       	brne	.+12     	; 0x5e2 <fputc+0x48>
     5d6:	8e 81       	ldd	r24, Y+6	; 0x06
     5d8:	9f 81       	ldd	r25, Y+7	; 0x07
     5da:	01 96       	adiw	r24, 0x01	; 1
     5dc:	9f 83       	std	Y+7, r25	; 0x07
     5de:	8e 83       	std	Y+6, r24	; 0x06
     5e0:	02 c0       	rjmp	.+4      	; 0x5e6 <fputc+0x4c>
     5e2:	0f ef       	ldi	r16, 0xFF	; 255
     5e4:	1f ef       	ldi	r17, 0xFF	; 255
     5e6:	c8 01       	movw	r24, r16
     5e8:	df 91       	pop	r29
     5ea:	cf 91       	pop	r28
     5ec:	1f 91       	pop	r17
     5ee:	0f 91       	pop	r16
     5f0:	08 95       	ret

000005f2 <__ultoa_invert>:
     5f2:	fa 01       	movw	r30, r20
     5f4:	aa 27       	eor	r26, r26
     5f6:	28 30       	cpi	r18, 0x08	; 8
     5f8:	51 f1       	breq	.+84     	; 0x64e <__ultoa_invert+0x5c>
     5fa:	20 31       	cpi	r18, 0x10	; 16
     5fc:	81 f1       	breq	.+96     	; 0x65e <__ultoa_invert+0x6c>
     5fe:	e8 94       	clt
     600:	6f 93       	push	r22
     602:	6e 7f       	andi	r22, 0xFE	; 254
     604:	6e 5f       	subi	r22, 0xFE	; 254
     606:	7f 4f       	sbci	r23, 0xFF	; 255
     608:	8f 4f       	sbci	r24, 0xFF	; 255
     60a:	9f 4f       	sbci	r25, 0xFF	; 255
     60c:	af 4f       	sbci	r26, 0xFF	; 255
     60e:	b1 e0       	ldi	r27, 0x01	; 1
     610:	3e d0       	rcall	.+124    	; 0x68e <__ultoa_invert+0x9c>
     612:	b4 e0       	ldi	r27, 0x04	; 4
     614:	3c d0       	rcall	.+120    	; 0x68e <__ultoa_invert+0x9c>
     616:	67 0f       	add	r22, r23
     618:	78 1f       	adc	r23, r24
     61a:	89 1f       	adc	r24, r25
     61c:	9a 1f       	adc	r25, r26
     61e:	a1 1d       	adc	r26, r1
     620:	68 0f       	add	r22, r24
     622:	79 1f       	adc	r23, r25
     624:	8a 1f       	adc	r24, r26
     626:	91 1d       	adc	r25, r1
     628:	a1 1d       	adc	r26, r1
     62a:	6a 0f       	add	r22, r26
     62c:	71 1d       	adc	r23, r1
     62e:	81 1d       	adc	r24, r1
     630:	91 1d       	adc	r25, r1
     632:	a1 1d       	adc	r26, r1
     634:	20 d0       	rcall	.+64     	; 0x676 <__ultoa_invert+0x84>
     636:	09 f4       	brne	.+2      	; 0x63a <__ultoa_invert+0x48>
     638:	68 94       	set
     63a:	3f 91       	pop	r19
     63c:	2a e0       	ldi	r18, 0x0A	; 10
     63e:	26 9f       	mul	r18, r22
     640:	11 24       	eor	r1, r1
     642:	30 19       	sub	r19, r0
     644:	30 5d       	subi	r19, 0xD0	; 208
     646:	31 93       	st	Z+, r19
     648:	de f6       	brtc	.-74     	; 0x600 <__ultoa_invert+0xe>
     64a:	cf 01       	movw	r24, r30
     64c:	08 95       	ret
     64e:	46 2f       	mov	r20, r22
     650:	47 70       	andi	r20, 0x07	; 7
     652:	40 5d       	subi	r20, 0xD0	; 208
     654:	41 93       	st	Z+, r20
     656:	b3 e0       	ldi	r27, 0x03	; 3
     658:	0f d0       	rcall	.+30     	; 0x678 <__ultoa_invert+0x86>
     65a:	c9 f7       	brne	.-14     	; 0x64e <__ultoa_invert+0x5c>
     65c:	f6 cf       	rjmp	.-20     	; 0x64a <__ultoa_invert+0x58>
     65e:	46 2f       	mov	r20, r22
     660:	4f 70       	andi	r20, 0x0F	; 15
     662:	40 5d       	subi	r20, 0xD0	; 208
     664:	4a 33       	cpi	r20, 0x3A	; 58
     666:	18 f0       	brcs	.+6      	; 0x66e <__ultoa_invert+0x7c>
     668:	49 5d       	subi	r20, 0xD9	; 217
     66a:	31 fd       	sbrc	r19, 1
     66c:	40 52       	subi	r20, 0x20	; 32
     66e:	41 93       	st	Z+, r20
     670:	02 d0       	rcall	.+4      	; 0x676 <__ultoa_invert+0x84>
     672:	a9 f7       	brne	.-22     	; 0x65e <__ultoa_invert+0x6c>
     674:	ea cf       	rjmp	.-44     	; 0x64a <__ultoa_invert+0x58>
     676:	b4 e0       	ldi	r27, 0x04	; 4
     678:	a6 95       	lsr	r26
     67a:	97 95       	ror	r25
     67c:	87 95       	ror	r24
     67e:	77 95       	ror	r23
     680:	67 95       	ror	r22
     682:	ba 95       	dec	r27
     684:	c9 f7       	brne	.-14     	; 0x678 <__ultoa_invert+0x86>
     686:	00 97       	sbiw	r24, 0x00	; 0
     688:	61 05       	cpc	r22, r1
     68a:	71 05       	cpc	r23, r1
     68c:	08 95       	ret
     68e:	9b 01       	movw	r18, r22
     690:	ac 01       	movw	r20, r24
     692:	0a 2e       	mov	r0, r26
     694:	06 94       	lsr	r0
     696:	57 95       	ror	r21
     698:	47 95       	ror	r20
     69a:	37 95       	ror	r19
     69c:	27 95       	ror	r18
     69e:	ba 95       	dec	r27
     6a0:	c9 f7       	brne	.-14     	; 0x694 <__ultoa_invert+0xa2>
     6a2:	62 0f       	add	r22, r18
     6a4:	73 1f       	adc	r23, r19
     6a6:	84 1f       	adc	r24, r20
     6a8:	95 1f       	adc	r25, r21
     6aa:	a0 1d       	adc	r26, r0
     6ac:	08 95       	ret

000006ae <_Z41__static_initialization_and_destruction_0ii>:
	}

	checkRadioCommands();
	Serial.flush();
	//shutdown();
}
     6ae:	81 30       	cpi	r24, 0x01	; 1
     6b0:	91 05       	cpc	r25, r1
     6b2:	39 f4       	brne	.+14     	; 0x6c2 <_Z41__static_initialization_and_destruction_0ii+0x14>
     6b4:	6f 5f       	subi	r22, 0xFF	; 255
     6b6:	7f 4f       	sbci	r23, 0xFF	; 255
     6b8:	69 f4       	brne	.+26     	; 0x6d4 <_Z41__static_initialization_and_destruction_0ii+0x26>
#define VALVE_CONTROL_1_PIN 8			// polarity of valve control pins must be reversed to open or close valve
#define VALVE_CONTROL_2_PIN 9			// see above

// Define Global Variables
static char MessageBuffer[256];
File logFile;
     6ba:	8a e5       	ldi	r24, 0x5A	; 90
     6bc:	92 e0       	ldi	r25, 0x02	; 2
     6be:	0c 94 a2 15 	jmp	0x2b44	; 0x2b44 <_ZN4FileC1Ev>
     6c2:	89 2b       	or	r24, r25
     6c4:	39 f4       	brne	.+14     	; 0x6d4 <_Z41__static_initialization_and_destruction_0ii+0x26>
     6c6:	6f 5f       	subi	r22, 0xFF	; 255
     6c8:	7f 4f       	sbci	r23, 0xFF	; 255
     6ca:	21 f4       	brne	.+8      	; 0x6d4 <_Z41__static_initialization_and_destruction_0ii+0x26>
     6cc:	8a e5       	ldi	r24, 0x5A	; 90
     6ce:	92 e0       	ldi	r25, 0x02	; 2
     6d0:	0c 94 b5 15 	jmp	0x2b6a	; 0x2b6a <_ZN4FileD1Ev>
     6d4:	08 95       	ret

000006d6 <_GLOBAL__D_logFile>:
	}

	checkRadioCommands();
	Serial.flush();
	//shutdown();
}
     6d6:	80 e0       	ldi	r24, 0x00	; 0
     6d8:	90 e0       	ldi	r25, 0x00	; 0
     6da:	6f ef       	ldi	r22, 0xFF	; 255
     6dc:	7f ef       	ldi	r23, 0xFF	; 255
     6de:	e7 cf       	rjmp	.-50     	; 0x6ae <_Z41__static_initialization_and_destruction_0ii>

000006e0 <_GLOBAL__I_logFile>:
     6e0:	81 e0       	ldi	r24, 0x01	; 1
     6e2:	90 e0       	ldi	r25, 0x00	; 0
     6e4:	6f ef       	ldi	r22, 0xFF	; 255
     6e6:	7f ef       	ldi	r23, 0xFF	; 255
     6e8:	e2 cf       	rjmp	.-60     	; 0x6ae <_Z41__static_initialization_and_destruction_0ii>

000006ea <_ZL9printTimev>:
static uint8_t printSerial()
{
	return Serial.print(MessageBuffer);
}

static void printTime()
     6ea:	0f 93       	push	r16
     6ec:	1f 93       	push	r17
     6ee:	df 93       	push	r29
     6f0:	cf 93       	push	r28
     6f2:	cd b7       	in	r28, 0x3d	; 61
     6f4:	de b7       	in	r29, 0x3e	; 62
     6f6:	2b 97       	sbiw	r28, 0x0b	; 11
     6f8:	0f b6       	in	r0, 0x3f	; 63
     6fa:	f8 94       	cli
     6fc:	de bf       	out	0x3e, r29	; 62
     6fe:	0f be       	out	0x3f, r0	; 63
     700:	cd bf       	out	0x3d, r28	; 61
	}
}

static uint8_t useDS3234()
{
	if(!SPIFunc)
     702:	80 91 76 02 	lds	r24, 0x0276
     706:	88 23       	and	r24, r24
     708:	41 f0       	breq	.+16     	; 0x71a <_ZL9printTimev+0x30>
	}
}

static void closeLogFile()
{
	logFile.close();
     70a:	8a e5       	ldi	r24, 0x5A	; 90
     70c:	92 e0       	ldi	r25, 0x02	; 2
     70e:	0e 94 04 16 	call	0x2c08	; 0x2c08 <_ZN4File5closeEv>
		return 0;
	}
	else
	{
		closeLogFile();
		SPIFunc = 0;
     712:	10 92 76 02 	sts	0x0276, r1
		DS3234_init(DS3234_SS_PIN);;
     716:	8a e0       	ldi	r24, 0x0A	; 10
     718:	c8 d2       	rcall	.+1424   	; 0xcaa <_Z11DS3234_inith>
     71a:	8a e0       	ldi	r24, 0x0A	; 10

static void printTime()
{
	ts time;
	useDS3234();
	DS3234_get(DS3234_SS_PIN,&time);
     71c:	be 01       	movw	r22, r28
     71e:	6f 5f       	subi	r22, 0xFF	; 255
     720:	7f 4f       	sbci	r23, 0xFF	; 255
     722:	36 d2       	rcall	.+1132   	; 0xb90 <_Z10DS3234_gethP2ts>
     724:	8d b7       	in	r24, 0x3d	; 61
     726:	9e b7       	in	r25, 0x3e	; 62
	sprintf(MessageBuffer,"%02u/%02u/%4d %02d:%02d:%02d\t",time.mon,time.mday,time.year,time.hour,time.min,time.sec);
     728:	40 97       	sbiw	r24, 0x10	; 16
     72a:	0f b6       	in	r0, 0x3f	; 63
     72c:	f8 94       	cli
     72e:	9e bf       	out	0x3e, r25	; 62
     730:	0f be       	out	0x3f, r0	; 63
     732:	8d bf       	out	0x3d, r24	; 61
     734:	ed b7       	in	r30, 0x3d	; 61
     736:	fe b7       	in	r31, 0x3e	; 62
     738:	31 96       	adiw	r30, 0x01	; 1
     73a:	08 e7       	ldi	r16, 0x78	; 120
     73c:	12 e0       	ldi	r17, 0x02	; 2
     73e:	ad b7       	in	r26, 0x3d	; 61
     740:	be b7       	in	r27, 0x3e	; 62
     742:	12 96       	adiw	r26, 0x02	; 2
     744:	1c 93       	st	X, r17
     746:	0e 93       	st	-X, r16
     748:	11 97       	sbiw	r26, 0x01	; 1
     74a:	80 e0       	ldi	r24, 0x00	; 0
     74c:	91 e0       	ldi	r25, 0x01	; 1
     74e:	93 83       	std	Z+3, r25	; 0x03
     750:	82 83       	std	Z+2, r24	; 0x02
     752:	8d 81       	ldd	r24, Y+5	; 0x05
     754:	84 83       	std	Z+4, r24	; 0x04
     756:	15 82       	std	Z+5, r1	; 0x05
     758:	8c 81       	ldd	r24, Y+4	; 0x04
     75a:	86 83       	std	Z+6, r24	; 0x06
     75c:	17 82       	std	Z+7, r1	; 0x07
     75e:	8e 81       	ldd	r24, Y+6	; 0x06
     760:	9f 81       	ldd	r25, Y+7	; 0x07
     762:	91 87       	std	Z+9, r25	; 0x09
     764:	80 87       	std	Z+8, r24	; 0x08
     766:	8b 81       	ldd	r24, Y+3	; 0x03
     768:	82 87       	std	Z+10, r24	; 0x0a
     76a:	13 86       	std	Z+11, r1	; 0x0b
     76c:	8a 81       	ldd	r24, Y+2	; 0x02
     76e:	84 87       	std	Z+12, r24	; 0x0c
     770:	15 86       	std	Z+13, r1	; 0x0d
     772:	89 81       	ldd	r24, Y+1	; 0x01
     774:	86 87       	std	Z+14, r24	; 0x0e
     776:	17 86       	std	Z+15, r1	; 0x0f
     778:	07 dd       	rcall	.-1522   	; 0x188 <sprintf>
     77a:	8d b7       	in	r24, 0x3d	; 61
     77c:	9e b7       	in	r25, 0x3e	; 62
     77e:	40 96       	adiw	r24, 0x10	; 16
	Serial.println(MessageBuffer);
     780:	0f b6       	in	r0, 0x3f	; 63
     782:	f8 94       	cli
     784:	9e bf       	out	0x3e, r25	; 62
     786:	0f be       	out	0x3f, r0	; 63
     788:	8d bf       	out	0x3d, r24	; 61
     78a:	83 e5       	ldi	r24, 0x53	; 83
     78c:	96 e0       	ldi	r25, 0x06	; 6
     78e:	b8 01       	movw	r22, r16
     790:	0e 94 3a 1d 	call	0x3a74	; 0x3a74 <_ZN5Print7printlnEPKc>
     794:	2b 96       	adiw	r28, 0x0b	; 11
     796:	0f b6       	in	r0, 0x3f	; 63
     798:	f8 94       	cli
}
     79a:	de bf       	out	0x3e, r29	; 62
     79c:	0f be       	out	0x3f, r0	; 63
     79e:	cd bf       	out	0x3d, r28	; 61
     7a0:	cf 91       	pop	r28
     7a2:	df 91       	pop	r29
     7a4:	1f 91       	pop	r17
     7a6:	0f 91       	pop	r16
     7a8:	08 95       	ret

000007aa <_ZL9openValvev>:
	printTime();
	sprintf(MessageBuffer,"Valve:\tClosed\n");
	return printSerial();
}

static uint8_t openValve()
     7aa:	0f 93       	push	r16
     7ac:	1f 93       	push	r17
{
	digitalWrite(VALVE_ENABLE_PIN,1);
     7ae:	87 e0       	ldi	r24, 0x07	; 7
     7b0:	61 e0       	ldi	r22, 0x01	; 1
     7b2:	0e 94 81 1e 	call	0x3d02	; 0x3d02 <digitalWrite>
	digitalWrite(VALVE_CONTROL_1_PIN,1);
     7b6:	88 e0       	ldi	r24, 0x08	; 8
     7b8:	61 e0       	ldi	r22, 0x01	; 1
     7ba:	0e 94 81 1e 	call	0x3d02	; 0x3d02 <digitalWrite>
	digitalWrite(VALVE_CONTROL_2_PIN,0);
     7be:	89 e0       	ldi	r24, 0x09	; 9
     7c0:	60 e0       	ldi	r22, 0x00	; 0
     7c2:	0e 94 81 1e 	call	0x3d02	; 0x3d02 <digitalWrite>
	delay(5000);
     7c6:	68 e8       	ldi	r22, 0x88	; 136
     7c8:	73 e1       	ldi	r23, 0x13	; 19
     7ca:	80 e0       	ldi	r24, 0x00	; 0
     7cc:	90 e0       	ldi	r25, 0x00	; 0
     7ce:	0e 94 ae 1d 	call	0x3b5c	; 0x3b5c <delay>
	Serial.println(MessageBuffer);
}

static void setValvePos(uint8_t pos)
{
	EEPROM.write(0,pos);
     7d2:	81 e8       	ldi	r24, 0x81	; 129
     7d4:	95 e0       	ldi	r25, 0x05	; 5
     7d6:	60 e0       	ldi	r22, 0x00	; 0
     7d8:	70 e0       	ldi	r23, 0x00	; 0
     7da:	41 e0       	ldi	r20, 0x01	; 1
     7dc:	0e 94 96 15 	call	0x2b2c	; 0x2b2c <_ZN11EEPROMClass5writeEih>
	digitalWrite(VALVE_ENABLE_PIN,1);
	digitalWrite(VALVE_CONTROL_1_PIN,1);
	digitalWrite(VALVE_CONTROL_2_PIN,0);
	delay(5000);
	setValvePos(1);
	digitalWrite(VALVE_ENABLE_PIN,0);
     7e0:	87 e0       	ldi	r24, 0x07	; 7
     7e2:	60 e0       	ldi	r22, 0x00	; 0
     7e4:	0e 94 81 1e 	call	0x3d02	; 0x3d02 <digitalWrite>
	digitalWrite(VALVE_CONTROL_1_PIN,0);
     7e8:	88 e0       	ldi	r24, 0x08	; 8
     7ea:	60 e0       	ldi	r22, 0x00	; 0
     7ec:	0e 94 81 1e 	call	0x3d02	; 0x3d02 <digitalWrite>
	printTime();
     7f0:	7c df       	rcall	.-264    	; 0x6ea <_ZL9printTimev>
     7f2:	08 e7       	ldi	r16, 0x78	; 120
	sprintf(MessageBuffer,"Valve:\tOpened\n");
     7f4:	12 e0       	ldi	r17, 0x02	; 2
     7f6:	c8 01       	movw	r24, r16
     7f8:	6e e1       	ldi	r22, 0x1E	; 30
     7fa:	71 e0       	ldi	r23, 0x01	; 1
     7fc:	af dc       	rcall	.-1698   	; 0x15c <strcpy>
     7fe:	83 e5       	ldi	r24, 0x53	; 83
     800:	96 e0       	ldi	r25, 0x06	; 6
	}
}

static uint8_t printSerial()
{
	return Serial.print(MessageBuffer);
     802:	b8 01       	movw	r22, r16
     804:	0e 94 38 1d 	call	0x3a70	; 0x3a70 <_ZN5Print5printEPKc>
     808:	1f 91       	pop	r17
     80a:	0f 91       	pop	r16
	digitalWrite(VALVE_ENABLE_PIN,0);
	digitalWrite(VALVE_CONTROL_1_PIN,0);
	printTime();
	sprintf(MessageBuffer,"Valve:\tOpened\n");
	return printSerial();
}
     80c:	08 95       	ret

0000080e <_ZL10closeValvev>:
static uint8_t wasLeakDetected()
{
	return EEPROM.read(1);
}

static uint8_t closeValve()
     80e:	0f 93       	push	r16
     810:	1f 93       	push	r17
{
	digitalWrite(VALVE_ENABLE_PIN,1);
     812:	87 e0       	ldi	r24, 0x07	; 7
     814:	61 e0       	ldi	r22, 0x01	; 1
     816:	0e 94 81 1e 	call	0x3d02	; 0x3d02 <digitalWrite>
	digitalWrite(VALVE_CONTROL_1_PIN,0);
     81a:	88 e0       	ldi	r24, 0x08	; 8
     81c:	60 e0       	ldi	r22, 0x00	; 0
     81e:	0e 94 81 1e 	call	0x3d02	; 0x3d02 <digitalWrite>
	digitalWrite(VALVE_CONTROL_2_PIN,1);
     822:	89 e0       	ldi	r24, 0x09	; 9
     824:	61 e0       	ldi	r22, 0x01	; 1
     826:	0e 94 81 1e 	call	0x3d02	; 0x3d02 <digitalWrite>
	delay(5000);
     82a:	68 e8       	ldi	r22, 0x88	; 136
     82c:	73 e1       	ldi	r23, 0x13	; 19
     82e:	80 e0       	ldi	r24, 0x00	; 0
     830:	90 e0       	ldi	r25, 0x00	; 0
     832:	0e 94 ae 1d 	call	0x3b5c	; 0x3b5c <delay>
	Serial.println(MessageBuffer);
}

static void setValvePos(uint8_t pos)
{
	EEPROM.write(0,pos);
     836:	81 e8       	ldi	r24, 0x81	; 129
     838:	95 e0       	ldi	r25, 0x05	; 5
     83a:	60 e0       	ldi	r22, 0x00	; 0
     83c:	70 e0       	ldi	r23, 0x00	; 0
     83e:	40 e0       	ldi	r20, 0x00	; 0
     840:	0e 94 96 15 	call	0x2b2c	; 0x2b2c <_ZN11EEPROMClass5writeEih>
	digitalWrite(VALVE_ENABLE_PIN,1);
	digitalWrite(VALVE_CONTROL_1_PIN,0);
	digitalWrite(VALVE_CONTROL_2_PIN,1);
	delay(5000);
	setValvePos(0);
	digitalWrite(VALVE_ENABLE_PIN,0);
     844:	87 e0       	ldi	r24, 0x07	; 7
     846:	60 e0       	ldi	r22, 0x00	; 0
     848:	0e 94 81 1e 	call	0x3d02	; 0x3d02 <digitalWrite>
	digitalWrite(VALVE_CONTROL_2_PIN,0);
     84c:	89 e0       	ldi	r24, 0x09	; 9
     84e:	60 e0       	ldi	r22, 0x00	; 0
     850:	0e 94 81 1e 	call	0x3d02	; 0x3d02 <digitalWrite>
	printTime();
     854:	4a df       	rcall	.-364    	; 0x6ea <_ZL9printTimev>
     856:	08 e7       	ldi	r16, 0x78	; 120
	sprintf(MessageBuffer,"Valve:\tClosed\n");
     858:	12 e0       	ldi	r17, 0x02	; 2
     85a:	c8 01       	movw	r24, r16
     85c:	6d e2       	ldi	r22, 0x2D	; 45
     85e:	71 e0       	ldi	r23, 0x01	; 1
     860:	7d dc       	rcall	.-1798   	; 0x15c <strcpy>
     862:	83 e5       	ldi	r24, 0x53	; 83
     864:	96 e0       	ldi	r25, 0x06	; 6
	}
}

static uint8_t printSerial()
{
	return Serial.print(MessageBuffer);
     866:	b8 01       	movw	r22, r16
     868:	0e 94 38 1d 	call	0x3a70	; 0x3a70 <_ZN5Print5printEPKc>
     86c:	1f 91       	pop	r17
     86e:	0f 91       	pop	r16
	digitalWrite(VALVE_ENABLE_PIN,0);
	digitalWrite(VALVE_CONTROL_2_PIN,0);
	printTime();
	sprintf(MessageBuffer,"Valve:\tClosed\n");
	return printSerial();
}
     870:	08 95       	ret

00000872 <_ZL10reportLeakv>:
	*/
}

static uint8_t reportLeak()
{
	printTime();
     872:	3b df       	rcall	.-394    	; 0x6ea <_ZL9printTimev>
     874:	81 e8       	ldi	r24, 0x81	; 129
	return EEPROM.read(0);
}

static uint8_t wasLeakDetected()
{
	return EEPROM.read(1);
     876:	95 e0       	ldi	r25, 0x05	; 5
     878:	61 e0       	ldi	r22, 0x01	; 1
     87a:	70 e0       	ldi	r23, 0x00	; 0
     87c:	0e 94 8f 15 	call	0x2b1e	; 0x2b1e <_ZN11EEPROMClass4readEi>
     880:	81 30       	cpi	r24, 0x01	; 1
}

static uint8_t reportLeak()
{
	printTime();
	switch (wasLeakDetected())
     882:	51 f0       	breq	.+20     	; 0x898 <_ZL10reportLeakv+0x26>
     884:	81 30       	cpi	r24, 0x01	; 1
     886:	18 f0       	brcs	.+6      	; 0x88e <_ZL10reportLeakv+0x1c>
     888:	82 30       	cpi	r24, 0x02	; 2
     88a:	81 f4       	brne	.+32     	; 0x8ac <_ZL10reportLeakv+0x3a>
     88c:	0a c0       	rjmp	.+20     	; 0x8a2 <_ZL10reportLeakv+0x30>
     88e:	88 e7       	ldi	r24, 0x78	; 120
	{
		case 0:
			sprintf(MessageBuffer,"Leak:\tNo leaks detected.\n");
     890:	92 e0       	ldi	r25, 0x02	; 2
     892:	6c e3       	ldi	r22, 0x3C	; 60
     894:	71 e0       	ldi	r23, 0x01	; 1
     896:	09 c0       	rjmp	.+18     	; 0x8aa <_ZL10reportLeakv+0x38>
     898:	88 e7       	ldi	r24, 0x78	; 120
			break;
		case 1:
			sprintf(MessageBuffer,"Leak:\tPossible leak detected: More than 1000 gallons used in a 24 hour period.\n");
     89a:	92 e0       	ldi	r25, 0x02	; 2
     89c:	66 e5       	ldi	r22, 0x56	; 86
     89e:	71 e0       	ldi	r23, 0x01	; 1
     8a0:	04 c0       	rjmp	.+8      	; 0x8aa <_ZL10reportLeakv+0x38>
     8a2:	88 e7       	ldi	r24, 0x78	; 120
			break;
		case 2:
			sprintf(MessageBuffer,"Leak:\tPossible leak detected: Flow rate >=1 GMP for 120 consecutive minutes.\n");
     8a4:	92 e0       	ldi	r25, 0x02	; 2
     8a6:	66 ea       	ldi	r22, 0xA6	; 166
     8a8:	71 e0       	ldi	r23, 0x01	; 1
     8aa:	58 dc       	rcall	.-1872   	; 0x15c <strcpy>
     8ac:	83 e5       	ldi	r24, 0x53	; 83
     8ae:	96 e0       	ldi	r25, 0x06	; 6
	}
}

static uint8_t printSerial()
{
	return Serial.print(MessageBuffer);
     8b0:	68 e7       	ldi	r22, 0x78	; 120
     8b2:	72 e0       	ldi	r23, 0x02	; 2
     8b4:	0c 94 38 1d 	jmp	0x3a70	; 0x3a70 <_ZN5Print5printEPKc>

000008b8 <_ZL8clearLogv>:
static void setConsecGallons(uint8_t gals)
{
	EEPROM.write(5,gals);
}

static uint8_t clearLog()
     8b8:	df 93       	push	r29
     8ba:	cf 93       	push	r28
     8bc:	cd b7       	in	r28, 0x3d	; 61
     8be:	de b7       	in	r29, 0x3e	; 62
     8c0:	6b 97       	sbiw	r28, 0x1b	; 27
     8c2:	0f b6       	in	r0, 0x3f	; 63
     8c4:	f8 94       	cli
     8c6:	de bf       	out	0x3e, r29	; 62
     8c8:	0f be       	out	0x3f, r0	; 63
     8ca:	cd bf       	out	0x3d, r28	; 61
	logFile.close();
}

static uint8_t useSD()
{
	if(SPIFunc)
     8cc:	80 91 76 02 	lds	r24, 0x0276
     8d0:	88 23       	and	r24, r24
     8d2:	09 f0       	breq	.+2      	; 0x8d6 <_ZL8clearLogv+0x1e>
     8d4:	4a c0       	rjmp	.+148    	; 0x96a <__stack+0x6b>
	{
		return 0;
	}
	else
	{
		DS3234_end();
     8d6:	de d1       	rcall	.+956    	; 0xc94 <_Z10DS3234_endv>
     8d8:	81 e0       	ldi	r24, 0x01	; 1
		SPIFunc = 1;
     8da:	80 93 76 02 	sts	0x0276, r24
     8de:	82 e8       	ldi	r24, 0x82	; 130
uint8_t leak, SPIFunc, interruptNo;

// Define Program Functions
static uint8_t openLogFile()
{
	if(!SD.begin(4))
     8e0:	95 e0       	ldi	r25, 0x05	; 5
     8e2:	64 e0       	ldi	r22, 0x04	; 4
     8e4:	0e 94 2d 19 	call	0x325a	; 0x325a <_ZN7SDClass5beginEh>
     8e8:	88 23       	and	r24, r24
     8ea:	09 f4       	brne	.+2      	; 0x8ee <_ZL8clearLogv+0x36>
     8ec:	3e c0       	rjmp	.+124    	; 0x96a <__stack+0x6b>
     8ee:	ce 01       	movw	r24, r28
	{
		return 1;		// SD card error
	}
	logFile = SD.open("log.txt",FILE_WRITE);
     8f0:	01 96       	adiw	r24, 0x01	; 1
     8f2:	62 e8       	ldi	r22, 0x82	; 130
     8f4:	75 e0       	ldi	r23, 0x05	; 5
     8f6:	44 ef       	ldi	r20, 0xF4	; 244
     8f8:	51 e0       	ldi	r21, 0x01	; 1
     8fa:	23 e1       	ldi	r18, 0x13	; 19
     8fc:	0e 94 0b 18 	call	0x3016	; 0x3016 <_ZN7SDClass4openEPKch>
     900:	8b 81       	ldd	r24, Y+3	; 0x03
#define HEX 16
#define OCT 8
#define BIN 2

class Print
{
     902:	9c 81       	ldd	r25, Y+4	; 0x04
     904:	90 93 5d 02 	sts	0x025D, r25
     908:	80 93 5c 02 	sts	0x025C, r24
     90c:	8d 81       	ldd	r24, Y+5	; 0x05
#define   getString( pre_string, post_string, buffer, length)
readBytesBetween( pre_string, terminator, buffer, length)
*/

class Stream : public Print
{
     90e:	9e 81       	ldd	r25, Y+6	; 0x06
     910:	af 81       	ldd	r26, Y+7	; 0x07
     912:	b8 85       	ldd	r27, Y+8	; 0x08
     914:	80 93 5e 02 	sts	0x025E, r24
     918:	90 93 5f 02 	sts	0x025F, r25
     91c:	a0 93 60 02 	sts	0x0260, r26
     920:	b0 93 61 02 	sts	0x0261, r27
     924:	89 85       	ldd	r24, Y+9	; 0x09
     926:	9a 85       	ldd	r25, Y+10	; 0x0a
     928:	ab 85       	ldd	r26, Y+11	; 0x0b
     92a:	bc 85       	ldd	r27, Y+12	; 0x0c
     92c:	80 93 62 02 	sts	0x0262, r24
     930:	90 93 63 02 	sts	0x0263, r25
     934:	a0 93 64 02 	sts	0x0264, r26
     938:	b0 93 65 02 	sts	0x0265, r27
     93c:	a6 e6       	ldi	r26, 0x66	; 102
#include <utility/SdFatUtil.h>

#define FILE_READ O_READ
#define FILE_WRITE (O_READ | O_WRITE | O_CREAT)

class File : public Stream {
     93e:	b2 e0       	ldi	r27, 0x02	; 2
     940:	fe 01       	movw	r30, r28
     942:	3d 96       	adiw	r30, 0x0d	; 13
     944:	8d e0       	ldi	r24, 0x0D	; 13
     946:	01 90       	ld	r0, Z+
     948:	0d 92       	st	X+, r0
     94a:	81 50       	subi	r24, 0x01	; 1
     94c:	e1 f7       	brne	.-8      	; 0x946 <__stack+0x47>
     94e:	8a 8d       	ldd	r24, Y+26	; 0x1a
     950:	9b 8d       	ldd	r25, Y+27	; 0x1b
     952:	90 93 74 02 	sts	0x0274, r25
     956:	80 93 73 02 	sts	0x0273, r24
     95a:	ce 01       	movw	r24, r28
     95c:	01 96       	adiw	r24, 0x01	; 1
     95e:	0e 94 b5 15 	call	0x2b6a	; 0x2b6a <_ZN4FileD1Ev>
     962:	8a e5       	ldi	r24, 0x5A	; 90
	if(logFile)
     964:	92 e0       	ldi	r25, 0x02	; 2
     966:	0e 94 f7 15 	call	0x2bee	; 0x2bee <_ZN4FilecvbEv>
     96a:	6b 96       	adiw	r28, 0x1b	; 27
	}
	printTime();
	sprintf(MessageBuffer,"Log:\tCleared\n");
	return printSerial();
	*/
}
     96c:	0f b6       	in	r0, 0x3f	; 63
     96e:	f8 94       	cli
     970:	de bf       	out	0x3e, r29	; 62
     972:	0f be       	out	0x3f, r0	; 63
     974:	cd bf       	out	0x3d, r28	; 61
     976:	cf 91       	pop	r28
     978:	df 91       	pop	r29
     97a:	08 95       	ret

0000097c <_ZL11resetSystemv>:

static uint8_t resetSystem()
     97c:	0f 93       	push	r16
     97e:	1f 93       	push	r17
{
	openValve();
     980:	14 df       	rcall	.-472    	; 0x7aa <_ZL9openValvev>
     982:	9a df       	rcall	.-204    	; 0x8b8 <_ZL8clearLogv>
	clearLog();
     984:	01 e8       	ldi	r16, 0x81	; 129
     986:	15 e0       	ldi	r17, 0x05	; 5
	EEPROM.write(0,pos);
}

static void setLeakCondition(uint8_t cond)
{
	EEPROM.write(1,cond);
     988:	c8 01       	movw	r24, r16
     98a:	61 e0       	ldi	r22, 0x01	; 1
     98c:	70 e0       	ldi	r23, 0x00	; 0
     98e:	40 e0       	ldi	r20, 0x00	; 0
     990:	0e 94 96 15 	call	0x2b2c	; 0x2b2c <_ZN11EEPROMClass5writeEih>
     994:	c8 01       	movw	r24, r16
     996:	63 e0       	ldi	r22, 0x03	; 3

static void setDayGallons(uint16_t DayGallons)
{
	uint8_t splitByte;
	splitByte = DayGallons/256;
	EEPROM.write(3,splitByte);
     998:	70 e0       	ldi	r23, 0x00	; 0
     99a:	40 e0       	ldi	r20, 0x00	; 0
     99c:	0e 94 96 15 	call	0x2b2c	; 0x2b2c <_ZN11EEPROMClass5writeEih>
     9a0:	c8 01       	movw	r24, r16
     9a2:	64 e0       	ldi	r22, 0x04	; 4
	DayGallons -= (uint32_t)(splitByte)*256;
	splitByte = DayGallons;
	EEPROM.write(4,DayGallons);
     9a4:	70 e0       	ldi	r23, 0x00	; 0
     9a6:	40 e0       	ldi	r20, 0x00	; 0
     9a8:	0e 94 96 15 	call	0x2b2c	; 0x2b2c <_ZN11EEPROMClass5writeEih>
     9ac:	c8 01       	movw	r24, r16
     9ae:	65 e0       	ldi	r22, 0x05	; 5
	return EEPROM.read(5);
}

static void setConsecGallons(uint8_t gals)
{
	EEPROM.write(5,gals);
     9b0:	70 e0       	ldi	r23, 0x00	; 0
     9b2:	40 e0       	ldi	r20, 0x00	; 0
     9b4:	0e 94 96 15 	call	0x2b2c	; 0x2b2c <_ZN11EEPROMClass5writeEih>
     9b8:	98 de       	rcall	.-720    	; 0x6ea <_ZL9printTimev>
     9ba:	08 e7       	ldi	r16, 0x78	; 120
	openValve();
	clearLog();
	setLeakCondition(0);
	setDayGallons(0);
	setConsecGallons(0);
	printTime();
     9bc:	12 e0       	ldi	r17, 0x02	; 2
     9be:	c8 01       	movw	r24, r16
	sprintf(MessageBuffer,"System Reset\n");
     9c0:	6c ef       	ldi	r22, 0xFC	; 252
     9c2:	71 e0       	ldi	r23, 0x01	; 1
     9c4:	cb db       	rcall	.-2154   	; 0x15c <strcpy>
     9c6:	83 e5       	ldi	r24, 0x53	; 83
     9c8:	96 e0       	ldi	r25, 0x06	; 6
     9ca:	b8 01       	movw	r22, r16
     9cc:	0e 94 38 1d 	call	0x3a70	; 0x3a70 <_ZN5Print5printEPKc>
	}
}

static uint8_t printSerial()
{
	return Serial.print(MessageBuffer);
     9d0:	1f 91       	pop	r17
     9d2:	0f 91       	pop	r16
     9d4:	08 95       	ret

000009d6 <loop>:
	interruptNo = 0;
}

void loop()
{
	if (digitalRead(RST_PIN))
     9d6:	86 e0       	ldi	r24, 0x06	; 6
     9d8:	0e 94 d5 1e 	call	0x3daa	; 0x3daa <digitalRead>
     9dc:	89 2b       	or	r24, r25
     9de:	09 f0       	breq	.+2      	; 0x9e2 <loop+0xc>
	{
		// manually reset system if INPUT 1 is held
		resetSystem();
     9e0:	cd df       	rcall	.-102    	; 0x97c <_ZL11resetSystemv>
     9e2:	82 e0       	ldi	r24, 0x02	; 2
	}

	if (digitalRead(RADIO_PIN))
     9e4:	0e 94 d5 1e 	call	0x3daa	; 0x3daa <digitalRead>
     9e8:	89 2b       	or	r24, r25
     9ea:	e1 f4       	brne	.+56     	; 0xa24 <loop+0x4e>
     9ec:	83 e0       	ldi	r24, 0x03	; 3
		reportLog();
		reportLeak();
		clearLog();
	}

	else if (digitalRead(METER_PIN))
     9ee:	0e 94 d5 1e 	call	0x3daa	; 0x3daa <digitalRead>
     9f2:	89 2b       	or	r24, r25
     9f4:	09 f4       	brne	.+2      	; 0x9f8 <loop+0x22>
     9f6:	61 c0       	rjmp	.+194    	; 0xaba <loop+0xe4>
     9f8:	81 e8       	ldi	r24, 0x81	; 129
	return EEPROM.read(0);
}

static uint8_t wasLeakDetected()
{
	return EEPROM.read(1);
     9fa:	95 e0       	ldi	r25, 0x05	; 5
     9fc:	61 e0       	ldi	r22, 0x01	; 1
     9fe:	70 e0       	ldi	r23, 0x00	; 0
     a00:	0e 94 8f 15 	call	0x2b1e	; 0x2b1e <_ZN11EEPROMClass4readEi>
     a04:	88 23       	and	r24, r24

	else if (digitalRead(METER_PIN))
	{
		logGallon();
		// check if a leak was previously detected
		if (wasLeakDetected()==0)
     a06:	09 f0       	breq	.+2      	; 0xa0a <loop+0x34>
     a08:	58 c0       	rjmp	.+176    	; 0xaba <loop+0xe4>
     a0a:	40 e0       	ldi	r20, 0x00	; 0
		{
			// if a new leak is detected, log it, report it, and turn off the valve
			leak = checkForLeaks();
     a0c:	40 93 75 02 	sts	0x0275, r20
     a10:	44 23       	and	r20, r20
			if (leak!=0)
     a12:	09 f4       	brne	.+2      	; 0xa16 <loop+0x40>
     a14:	52 c0       	rjmp	.+164    	; 0xaba <loop+0xe4>
     a16:	81 e8       	ldi	r24, 0x81	; 129
	EEPROM.write(0,pos);
}

static void setLeakCondition(uint8_t cond)
{
	EEPROM.write(1,cond);
     a18:	95 e0       	ldi	r25, 0x05	; 5
     a1a:	61 e0       	ldi	r22, 0x01	; 1
     a1c:	70 e0       	ldi	r23, 0x00	; 0
     a1e:	0e 94 96 15 	call	0x2b2c	; 0x2b2c <_ZN11EEPROMClass5writeEih>
     a22:	f5 de       	rcall	.-534    	; 0x80e <_ZL10closeValvev>
			// if a new leak is detected, log it, report it, and turn off the valve
			leak = checkForLeaks();
			if (leak!=0)
			{
				setLeakCondition(leak);
				closeValve();
     a24:	26 df       	rcall	.-436    	; 0x872 <_ZL10reportLeakv>
     a26:	48 df       	rcall	.-368    	; 0x8b8 <_ZL8clearLogv>
				reportLog();
				reportLeak();
     a28:	48 c0       	rjmp	.+144    	; 0xaba <loop+0xe4>
     a2a:	83 e5       	ldi	r24, 0x53	; 83
				clearLog();
     a2c:	96 e0       	ldi	r25, 0x06	; 6
     a2e:	0e 94 01 1c 	call	0x3802	; 0x3802 <_ZN14HardwareSerial4readEv>

static void checkRadioCommands()
{
	while(Serial.available())
	{
		processRadio(Serial.read());
     a32:	8f 36       	cpi	r24, 0x6F	; 111
     a34:	a9 f0       	breq	.+42     	; 0xa60 <loop+0x8a>
     a36:	80 37       	cpi	r24, 0x70	; 112
     a38:	40 f4       	brcc	.+16     	; 0xa4a <loop+0x74>
	return printSerial();
}

static void processRadio(uint8_t Signal)
{
	switch (Signal)
     a3a:	8b 36       	cpi	r24, 0x6B	; 107
     a3c:	59 f1       	breq	.+86     	; 0xa94 <loop+0xbe>
     a3e:	8c 36       	cpi	r24, 0x6C	; 108
     a40:	89 f0       	breq	.+34     	; 0xa64 <loop+0x8e>
     a42:	83 36       	cpi	r24, 0x63	; 99
     a44:	09 f0       	breq	.+2      	; 0xa48 <loop+0x72>
     a46:	39 c0       	rjmp	.+114    	; 0xaba <loop+0xe4>
     a48:	09 c0       	rjmp	.+18     	; 0xa5c <loop+0x86>
     a4a:	82 37       	cpi	r24, 0x72	; 114
     a4c:	29 f0       	breq	.+10     	; 0xa58 <loop+0x82>
     a4e:	86 37       	cpi	r24, 0x76	; 118
     a50:	59 f0       	breq	.+22     	; 0xa68 <loop+0x92>
     a52:	81 37       	cpi	r24, 0x71	; 113
     a54:	91 f5       	brne	.+100    	; 0xaba <loop+0xe4>
     a56:	e7 cf       	rjmp	.-50     	; 0xa26 <loop+0x50>
     a58:	91 df       	rcall	.-222    	; 0x97c <_ZL11resetSystemv>
     a5a:	2f c0       	rjmp	.+94     	; 0xaba <loop+0xe4>
     a5c:	d8 de       	rcall	.-592    	; 0x80e <_ZL10closeValvev>
     a5e:	2d c0       	rjmp	.+90     	; 0xaba <loop+0xe4>
	{
		case 'r':
			resetSystem();
     a60:	a4 de       	rcall	.-696    	; 0x7aa <_ZL9openValvev>
     a62:	2b c0       	rjmp	.+86     	; 0xaba <loop+0xe4>
     a64:	06 df       	rcall	.-500    	; 0x872 <_ZL10reportLeakv>
			break;
		case 'c':
			closeValve();
     a66:	29 c0       	rjmp	.+82     	; 0xaba <loop+0xe4>
     a68:	40 de       	rcall	.-896    	; 0x6ea <_ZL9printTimev>
     a6a:	81 e8       	ldi	r24, 0x81	; 129
			break;
		case 'o':
			openValve();
     a6c:	95 e0       	ldi	r25, 0x05	; 5
     a6e:	60 e0       	ldi	r22, 0x00	; 0
     a70:	70 e0       	ldi	r23, 0x00	; 0
			break;
		case 'l':
			reportLeak();
     a72:	0e 94 8f 15 	call	0x2b1e	; 0x2b1e <_ZN11EEPROMClass4readEi>
     a76:	88 23       	and	r24, r24
	return printSerial();
}

static uint8_t reportValve()
{
	printTime();
     a78:	19 f0       	breq	.+6      	; 0xa80 <loop+0xaa>
     a7a:	81 30       	cpi	r24, 0x01	; 1
	EEPROM.write(1,cond);
}

static uint8_t isValveOpen()
{
	return EEPROM.read(0);
     a7c:	c1 f4       	brne	.+48     	; 0xaae <loop+0xd8>
     a7e:	05 c0       	rjmp	.+10     	; 0xa8a <loop+0xb4>
     a80:	88 e7       	ldi	r24, 0x78	; 120
     a82:	92 e0       	ldi	r25, 0x02	; 2
     a84:	6d e2       	ldi	r22, 0x2D	; 45
     a86:	71 e0       	ldi	r23, 0x01	; 1
}

static uint8_t reportValve()
{
	printTime();
	switch (isValveOpen())
     a88:	11 c0       	rjmp	.+34     	; 0xaac <loop+0xd6>
     a8a:	88 e7       	ldi	r24, 0x78	; 120
     a8c:	92 e0       	ldi	r25, 0x02	; 2
     a8e:	6a e0       	ldi	r22, 0x0A	; 10
     a90:	72 e0       	ldi	r23, 0x02	; 2
	{
	case 0:
		sprintf(MessageBuffer,"Valve:\tClosed\n");
     a92:	0c c0       	rjmp	.+24     	; 0xaac <loop+0xd6>
     a94:	81 e8       	ldi	r24, 0x81	; 129
     a96:	95 e0       	ldi	r25, 0x05	; 5
     a98:	61 e0       	ldi	r22, 0x01	; 1
     a9a:	70 e0       	ldi	r23, 0x00	; 0
		break;
	case 1:
		sprintf(MessageBuffer,"Valve:\tOpen\n");
     a9c:	40 e0       	ldi	r20, 0x00	; 0
     a9e:	0e 94 96 15 	call	0x2b2c	; 0x2b2c <_ZN11EEPROMClass5writeEih>
     aa2:	23 de       	rcall	.-954    	; 0x6ea <_ZL9printTimev>
     aa4:	88 e7       	ldi	r24, 0x78	; 120
	EEPROM.write(0,pos);
}

static void setLeakCondition(uint8_t cond)
{
	EEPROM.write(1,cond);
     aa6:	92 e0       	ldi	r25, 0x02	; 2
     aa8:	67 e1       	ldi	r22, 0x17	; 23
     aaa:	72 e0       	ldi	r23, 0x02	; 2
     aac:	57 db       	rcall	.-2386   	; 0x15c <strcpy>
     aae:	83 e5       	ldi	r24, 0x53	; 83
     ab0:	96 e0       	ldi	r25, 0x06	; 6
     ab2:	68 e7       	ldi	r22, 0x78	; 120
}

static uint8_t clearLeak()
{
	setLeakCondition(0);
	printTime();
     ab4:	72 e0       	ldi	r23, 0x02	; 2
     ab6:	0e 94 38 1d 	call	0x3a70	; 0x3a70 <_ZN5Print5printEPKc>
	sprintf(MessageBuffer,"Leak:\tCleared\n");
     aba:	83 e5       	ldi	r24, 0x53	; 83
     abc:	96 e0       	ldi	r25, 0x06	; 6
     abe:	0e 94 d0 1b 	call	0x37a0	; 0x37a0 <_ZN14HardwareSerial9availableEv>
     ac2:	89 2b       	or	r24, r25
	}
}

static uint8_t printSerial()
{
	return Serial.print(MessageBuffer);
     ac4:	09 f0       	breq	.+2      	; 0xac8 <loop+0xf2>
     ac6:	b1 cf       	rjmp	.-158    	; 0xa2a <loop+0x54>
     ac8:	83 e5       	ldi	r24, 0x53	; 83
     aca:	96 e0       	ldi	r25, 0x06	; 6
     acc:	0c 94 2a 1c 	jmp	0x3854	; 0x3854 <_ZN14HardwareSerial5flushEv>

00000ad0 <setup>:

// Runtime functions
void setup()
{
	// Initialize Pins
	pinMode(VALVE_ENABLE_PIN,OUTPUT);
     ad0:	87 e0       	ldi	r24, 0x07	; 7
     ad2:	61 e0       	ldi	r22, 0x01	; 1
     ad4:	0e 94 42 1e 	call	0x3c84	; 0x3c84 <pinMode>
	pinMode(VALVE_CONTROL_1_PIN,OUTPUT);
     ad8:	88 e0       	ldi	r24, 0x08	; 8
     ada:	61 e0       	ldi	r22, 0x01	; 1
     adc:	0e 94 42 1e 	call	0x3c84	; 0x3c84 <pinMode>
	pinMode(VALVE_CONTROL_2_PIN,OUTPUT);
     ae0:	89 e0       	ldi	r24, 0x09	; 9
     ae2:	61 e0       	ldi	r22, 0x01	; 1
     ae4:	0e 94 42 1e 	call	0x3c84	; 0x3c84 <pinMode>
	pinMode(SD_SS_PIN,OUTPUT);
     ae8:	84 e0       	ldi	r24, 0x04	; 4
     aea:	61 e0       	ldi	r22, 0x01	; 1
     aec:	0e 94 42 1e 	call	0x3c84	; 0x3c84 <pinMode>
	pinMode(DS3234_SS_PIN,OUTPUT);
     af0:	8a e0       	ldi	r24, 0x0A	; 10
     af2:	61 e0       	ldi	r22, 0x01	; 1
     af4:	0e 94 42 1e 	call	0x3c84	; 0x3c84 <pinMode>

	pinMode(RADIO_PIN,INPUT);
     af8:	82 e0       	ldi	r24, 0x02	; 2
     afa:	60 e0       	ldi	r22, 0x00	; 0
     afc:	0e 94 42 1e 	call	0x3c84	; 0x3c84 <pinMode>
	pinMode(METER_PIN,INPUT);
     b00:	83 e0       	ldi	r24, 0x03	; 3
     b02:	60 e0       	ldi	r22, 0x00	; 0
     b04:	0e 94 42 1e 	call	0x3c84	; 0x3c84 <pinMode>

	digitalWrite(VALVE_ENABLE_PIN,0);
     b08:	87 e0       	ldi	r24, 0x07	; 7
     b0a:	60 e0       	ldi	r22, 0x00	; 0
     b0c:	0e 94 81 1e 	call	0x3d02	; 0x3d02 <digitalWrite>
	digitalWrite(VALVE_CONTROL_1_PIN,0);
     b10:	88 e0       	ldi	r24, 0x08	; 8
     b12:	60 e0       	ldi	r22, 0x00	; 0
     b14:	0e 94 81 1e 	call	0x3d02	; 0x3d02 <digitalWrite>
	digitalWrite(VALVE_CONTROL_2_PIN,0);
     b18:	89 e0       	ldi	r24, 0x09	; 9
     b1a:	60 e0       	ldi	r22, 0x00	; 0
     b1c:	0e 94 81 1e 	call	0x3d02	; 0x3d02 <digitalWrite>
	digitalWrite(SD_SS_PIN,1);
     b20:	84 e0       	ldi	r24, 0x04	; 4
     b22:	61 e0       	ldi	r22, 0x01	; 1
     b24:	0e 94 81 1e 	call	0x3d02	; 0x3d02 <digitalWrite>
	digitalWrite(DS3234_SS_PIN,1);
     b28:	8a e0       	ldi	r24, 0x0A	; 10
     b2a:	61 e0       	ldi	r22, 0x01	; 1
     b2c:	0e 94 81 1e 	call	0x3d02	; 0x3d02 <digitalWrite>

	pinMode(RST_PIN,INPUT_PULLUP);
     b30:	86 e0       	ldi	r24, 0x06	; 6
     b32:	62 e0       	ldi	r22, 0x02	; 2
     b34:	0e 94 42 1e 	call	0x3c84	; 0x3c84 <pinMode>

	// Initialize SPI Communication
	DS3234_init(DS3234_SS_PIN);
     b38:	8a e0       	ldi	r24, 0x0A	; 10
     b3a:	b7 d0       	rcall	.+366    	; 0xcaa <_Z11DS3234_inith>
     b3c:	10 92 76 02 	sts	0x0276, r1
	SPIFunc = 0;
     b40:	83 e5       	ldi	r24, 0x53	; 83

	// Initialize Radio Communication
	Serial.begin(9600,SERIAL_8N1);
     b42:	96 e0       	ldi	r25, 0x06	; 6
     b44:	40 e8       	ldi	r20, 0x80	; 128
     b46:	55 e2       	ldi	r21, 0x25	; 37
     b48:	60 e0       	ldi	r22, 0x00	; 0
     b4a:	70 e0       	ldi	r23, 0x00	; 0
     b4c:	26 e0       	ldi	r18, 0x06	; 6
     b4e:	0e 94 45 1b 	call	0x368a	; 0x368a <_ZN14HardwareSerial5beginEmh>
     b52:	83 e5       	ldi	r24, 0x53	; 83
	while(!Serial){;}
     b54:	96 e0       	ldi	r25, 0x06	; 6
     b56:	0e 94 7a 1c 	call	0x38f4	; 0x38f4 <_ZN14HardwareSerialcvbEv>
     b5a:	88 23       	and	r24, r24
     b5c:	d1 f3       	breq	.-12     	; 0xb52 <setup+0x82>
     b5e:	10 92 75 02 	sts	0x0275, r1

	// Set Global Variables
	leak = 0;
     b62:	10 92 77 02 	sts	0x0277, r1
	interruptNo = 0;
     b66:	08 95       	ret

00000b68 <__vector_6>:
* Description: Watchdog Timer interrupt service routine. This routine is 
*		           required to allow automatic WDIF and WDIE bit clearance in 
*			         hardware.
*
*******************************************************************************/
ISR (WDT_vect)
     b68:	1f 92       	push	r1
     b6a:	0f 92       	push	r0
     b6c:	0f b6       	in	r0, 0x3f	; 63
     b6e:	0f 92       	push	r0
     b70:	11 24       	eor	r1, r1
     b72:	8f 93       	push	r24
{
	// WDIE & WDIF is cleared in hardware upon entering this ISR
	wdt_disable();
     b74:	88 e1       	ldi	r24, 0x18	; 24
     b76:	0f b6       	in	r0, 0x3f	; 63
     b78:	f8 94       	cli
     b7a:	80 93 60 00 	sts	0x0060, r24
     b7e:	10 92 60 00 	sts	0x0060, r1
     b82:	0f be       	out	0x3f, r0	; 63
}
     b84:	8f 91       	pop	r24
     b86:	0f 90       	pop	r0
     b88:	0f be       	out	0x3f, r0	; 63
     b8a:	0f 90       	pop	r0
     b8c:	1f 90       	pop	r1
     b8e:	18 95       	reti

00000b90 <_Z10DS3234_gethP2ts>:
            SPI.transfer(dectobcd(TimeDate[i]));
        digitalWrite(pin, HIGH);
    }
}

void DS3234_get(const uint8_t pin, struct ts *t)
     b90:	9f 92       	push	r9
     b92:	af 92       	push	r10
     b94:	bf 92       	push	r11
     b96:	cf 92       	push	r12
     b98:	df 92       	push	r13
     b9a:	ef 92       	push	r14
     b9c:	ff 92       	push	r15
     b9e:	0f 93       	push	r16
     ba0:	1f 93       	push	r17
     ba2:	df 93       	push	r29
     ba4:	cf 93       	push	r28
     ba6:	cd b7       	in	r28, 0x3d	; 61
     ba8:	de b7       	in	r29, 0x3e	; 62
     baa:	27 97       	sbiw	r28, 0x07	; 7
     bac:	0f b6       	in	r0, 0x3f	; 63
     bae:	f8 94       	cli
     bb0:	de bf       	out	0x3e, r29	; 62
     bb2:	0f be       	out	0x3f, r0	; 63
     bb4:	cd bf       	out	0x3d, r28	; 61
     bb6:	a8 2e       	mov	r10, r24
     bb8:	8b 01       	movw	r16, r22
     bba:	6e 01       	movw	r12, r28
     bbc:	08 94       	sec
     bbe:	c1 1c       	adc	r12, r1
     bc0:	d1 1c       	adc	r13, r1
     bc2:	bb 24       	eor	r11, r11
     bc4:	ee 24       	eor	r14, r14
        digitalWrite(pin, HIGH);
        if (i == 5) {           // month address also contains the century on bit7
            TimeDate[5] = bcdtodec(n & 0x1F);
            century = (n & 0x80) >> 7;
        } else {
            TimeDate[i] = bcdtodec(n);
     bc6:	2a e0       	ldi	r18, 0x0A	; 10
     bc8:	92 2e       	mov	r9, r18
    uint8_t century = 0;
    uint8_t i, n;
    uint16_t year_full;

    for (i = 0; i <= 6; i++) {
        digitalWrite(pin, LOW);
     bca:	8a 2d       	mov	r24, r10
     bcc:	60 e0       	ldi	r22, 0x00	; 0
     bce:	0e 94 81 1e 	call	0x3d02	; 0x3d02 <digitalWrite>
};

extern SPIClass SPI;

byte SPIClass::transfer(byte _data) {
  SPDR = _data;
     bd2:	ee bc       	out	0x2e, r14	; 46
  while (!(SPSR & _BV(SPIF)))
     bd4:	0d b4       	in	r0, 0x2d	; 45
     bd6:	07 fe       	sbrs	r0, 7
     bd8:	fd cf       	rjmp	.-6      	; 0xbd4 <_Z10DS3234_gethP2ts+0x44>
    ;
  return SPDR;
     bda:	8e b5       	in	r24, 0x2e	; 46
};

extern SPIClass SPI;

byte SPIClass::transfer(byte _data) {
  SPDR = _data;
     bdc:	1e bc       	out	0x2e, r1	; 46
  while (!(SPSR & _BV(SPIF)))
     bde:	0d b4       	in	r0, 0x2d	; 45
     be0:	07 fe       	sbrs	r0, 7
     be2:	fd cf       	rjmp	.-6      	; 0xbde <_Z10DS3234_gethP2ts+0x4e>
    ;
  return SPDR;
     be4:	fe b4       	in	r15, 0x2e	; 46
        SPI.transfer(i + 0x00);
        n = SPI.transfer(0x00);
        digitalWrite(pin, HIGH);
     be6:	8a 2d       	mov	r24, r10
     be8:	61 e0       	ldi	r22, 0x01	; 1
     bea:	0e 94 81 1e 	call	0x3d02	; 0x3d02 <digitalWrite>
     bee:	2f 2d       	mov	r18, r15
     bf0:	2f 70       	andi	r18, 0x0F	; 15
        if (i == 5) {           // month address also contains the century on bit7
     bf2:	85 e0       	ldi	r24, 0x05	; 5
     bf4:	e8 16       	cp	r14, r24
     bf6:	71 f4       	brne	.+28     	; 0xc14 <_Z10DS3234_gethP2ts+0x84>
            TimeDate[5] = bcdtodec(n & 0x1F);
     bf8:	8f 2d       	mov	r24, r15
     bfa:	8f 71       	andi	r24, 0x1F	; 31
     bfc:	82 95       	swap	r24
     bfe:	8f 70       	andi	r24, 0x0F	; 15
     c00:	89 9d       	mul	r24, r9
     c02:	c0 01       	movw	r24, r0
     c04:	11 24       	eor	r1, r1
     c06:	28 0f       	add	r18, r24
     c08:	2e 83       	std	Y+6, r18	; 0x06
            century = (n & 0x80) >> 7;
     c0a:	bf 2c       	mov	r11, r15
     c0c:	bb 1c       	adc	r11, r11
     c0e:	bb 24       	eor	r11, r11
     c10:	bb 1c       	adc	r11, r11
     c12:	09 c0       	rjmp	.+18     	; 0xc26 <_Z10DS3234_gethP2ts+0x96>
        } else {
            TimeDate[i] = bcdtodec(n);
     c14:	f2 94       	swap	r15
     c16:	9f e0       	ldi	r25, 0x0F	; 15
     c18:	f9 22       	and	r15, r25
     c1a:	f9 9c       	mul	r15, r9
     c1c:	c0 01       	movw	r24, r0
     c1e:	11 24       	eor	r1, r1
     c20:	28 0f       	add	r18, r24
     c22:	f6 01       	movw	r30, r12
     c24:	20 83       	st	Z, r18
    uint8_t TimeDate[7];        //second,minute,hour,dow,day,month,year
    uint8_t century = 0;
    uint8_t i, n;
    uint16_t year_full;

    for (i = 0; i <= 6; i++) {
     c26:	e3 94       	inc	r14
     c28:	08 94       	sec
     c2a:	c1 1c       	adc	r12, r1
     c2c:	d1 1c       	adc	r13, r1
     c2e:	f7 e0       	ldi	r31, 0x07	; 7
     c30:	ef 16       	cp	r14, r31
     c32:	59 f6       	brne	.-106    	; 0xbca <_Z10DS3234_gethP2ts+0x3a>
     c34:	8f 81       	ldd	r24, Y+7	; 0x07
        } else {
            TimeDate[i] = bcdtodec(n);
        }
    }

    if (century == 1)
     c36:	91 e0       	ldi	r25, 0x01	; 1
     c38:	b9 16       	cp	r11, r25
     c3a:	29 f4       	brne	.+10     	; 0xc46 <_Z10DS3234_gethP2ts+0xb6>
        year_full = 2000 + TimeDate[6];
     c3c:	28 2f       	mov	r18, r24
     c3e:	30 e0       	ldi	r19, 0x00	; 0
     c40:	20 53       	subi	r18, 0x30	; 48
     c42:	38 4f       	sbci	r19, 0xF8	; 248
     c44:	04 c0       	rjmp	.+8      	; 0xc4e <_Z10DS3234_gethP2ts+0xbe>
    else
        year_full = 1900 + TimeDate[6];
     c46:	28 2f       	mov	r18, r24
     c48:	30 e0       	ldi	r19, 0x00	; 0
     c4a:	24 59       	subi	r18, 0x94	; 148
     c4c:	38 4f       	sbci	r19, 0xF8	; 248

    t->sec = TimeDate[0];
     c4e:	89 81       	ldd	r24, Y+1	; 0x01
     c50:	f8 01       	movw	r30, r16
     c52:	80 83       	st	Z, r24
    t->min = TimeDate[1];
     c54:	8a 81       	ldd	r24, Y+2	; 0x02
     c56:	81 83       	std	Z+1, r24	; 0x01
    t->hour = TimeDate[2];
     c58:	8b 81       	ldd	r24, Y+3	; 0x03
     c5a:	82 83       	std	Z+2, r24	; 0x02
    t->mday = TimeDate[4];
     c5c:	8d 81       	ldd	r24, Y+5	; 0x05
     c5e:	83 83       	std	Z+3, r24	; 0x03
    t->mon = TimeDate[5];
     c60:	8e 81       	ldd	r24, Y+6	; 0x06
     c62:	84 83       	std	Z+4, r24	; 0x04
    t->year = year_full;
     c64:	36 83       	std	Z+6, r19	; 0x06
     c66:	25 83       	std	Z+5, r18	; 0x05
    t->wday = TimeDate[3];
     c68:	8c 81       	ldd	r24, Y+4	; 0x04
     c6a:	87 83       	std	Z+7, r24	; 0x07
    t->year_s = TimeDate[6];
     c6c:	8f 81       	ldd	r24, Y+7	; 0x07
     c6e:	82 87       	std	Z+10, r24	; 0x0a
}
     c70:	27 96       	adiw	r28, 0x07	; 7
     c72:	0f b6       	in	r0, 0x3f	; 63
     c74:	f8 94       	cli
     c76:	de bf       	out	0x3e, r29	; 62
     c78:	0f be       	out	0x3f, r0	; 63
     c7a:	cd bf       	out	0x3d, r28	; 61
     c7c:	cf 91       	pop	r28
     c7e:	df 91       	pop	r29
     c80:	1f 91       	pop	r17
     c82:	0f 91       	pop	r16
     c84:	ff 90       	pop	r15
     c86:	ef 90       	pop	r14
     c88:	df 90       	pop	r13
     c8a:	cf 90       	pop	r12
     c8c:	bf 90       	pop	r11
     c8e:	af 90       	pop	r10
     c90:	9f 90       	pop	r9
     c92:	08 95       	ret

00000c94 <_Z10DS3234_endv>:
    // TODO: add error handling/reporting for if SPI fails to initialize
}

void DS3234_end()
{
	SPI.setDataMode(SPI_MODE0);
     c94:	80 e0       	ldi	r24, 0x00	; 0
     c96:	0e 94 70 19 	call	0x32e0	; 0x32e0 <_ZN8SPIClass11setDataModeEh>
	SPI.end();
     c9a:	0e 94 63 19 	call	0x32c6	; 0x32c6 <_ZN8SPIClass3endEv>
	delay(10);
     c9e:	6a e0       	ldi	r22, 0x0A	; 10
     ca0:	70 e0       	ldi	r23, 0x00	; 0
     ca2:	80 e0       	ldi	r24, 0x00	; 0
     ca4:	90 e0       	ldi	r25, 0x00	; 0
     ca6:	0c 94 ae 1d 	jmp	0x3b5c	; 0x3b5c <delay>

00000caa <_Z11DS3234_inith>:
bit0 A1IE   Alarm1 interrupt enable (1 to enable)
*/

void DS3234_init(const uint8_t pin)
{
    pinMode(pin, OUTPUT);       // chip select pin
     caa:	61 e0       	ldi	r22, 0x01	; 1
     cac:	0e 94 42 1e 	call	0x3c84	; 0x3c84 <pinMode>
    SPI.begin();
     cb0:	0e 94 75 19 	call	0x32ea	; 0x32ea <_ZN8SPIClass5beginEv>
    SPI.setBitOrder(MSBFIRST);
     cb4:	81 e0       	ldi	r24, 0x01	; 1
     cb6:	0e 94 67 19 	call	0x32ce	; 0x32ce <_ZN8SPIClass11setBitOrderEh>
    SPI.setDataMode(SPI_MODE1);
     cba:	84 e0       	ldi	r24, 0x04	; 4
     cbc:	0e 94 70 19 	call	0x32e0	; 0x32e0 <_ZN8SPIClass11setDataModeEh>
    delay(10);
     cc0:	6a e0       	ldi	r22, 0x0A	; 10
     cc2:	70 e0       	ldi	r23, 0x00	; 0
     cc4:	80 e0       	ldi	r24, 0x00	; 0
     cc6:	90 e0       	ldi	r25, 0x00	; 0
     cc8:	0c 94 ae 1d 	jmp	0x3b5c	; 0x3b5c <delay>

00000ccc <_ZN7Sd2Card10setSckRateEh>:
 * for \a scsRateID = 6.
 *
 * \return The value one, true, is returned for success and the value zero,
 * false, is returned for an invalid value of \a sckRateID.
 */
uint8_t Sd2Card::setSckRate(uint8_t sckRateID) {
     ccc:	fc 01       	movw	r30, r24
  if (sckRateID > 6) {
     cce:	67 30       	cpi	r22, 0x07	; 7
     cd0:	20 f0       	brcs	.+8      	; 0xcda <_ZN7Sd2Card10setSckRateEh+0xe>
  uint8_t cardAcmd(uint8_t cmd, uint32_t arg) {
    cardCommand(CMD55, 0);
    return cardCommand(cmd, arg);
  }
  uint8_t cardCommand(uint8_t cmd, uint32_t arg);
  void error(uint8_t code) {errorCode_ = code;}
     cd2:	86 e1       	ldi	r24, 0x16	; 22
     cd4:	85 83       	std	Z+5, r24	; 0x05
     cd6:	80 e0       	ldi	r24, 0x00	; 0
     cd8:	08 95       	ret
    error(SD_CARD_ERROR_SCK_RATE);
    return false;
  }
  // see avr processor datasheet for SPI register bit definitions
  if ((sckRateID & 1) || sckRateID == 6) {
     cda:	26 2f       	mov	r18, r22
     cdc:	30 e0       	ldi	r19, 0x00	; 0
     cde:	60 fd       	sbrc	r22, 0
     ce0:	02 c0       	rjmp	.+4      	; 0xce6 <_ZN7Sd2Card10setSckRateEh+0x1a>
     ce2:	66 30       	cpi	r22, 0x06	; 6
     ce4:	19 f4       	brne	.+6      	; 0xcec <_ZN7Sd2Card10setSckRateEh+0x20>
    SPSR &= ~(1 << SPI2X);
     ce6:	8d b5       	in	r24, 0x2d	; 45
     ce8:	8e 7f       	andi	r24, 0xFE	; 254
     cea:	02 c0       	rjmp	.+4      	; 0xcf0 <_ZN7Sd2Card10setSckRateEh+0x24>
  } else {
    SPSR |= (1 << SPI2X);
     cec:	8d b5       	in	r24, 0x2d	; 45
     cee:	81 60       	ori	r24, 0x01	; 1
     cf0:	8d bd       	out	0x2d, r24	; 45
  }
  SPCR &= ~((1 <<SPR1) | (1 << SPR0));
     cf2:	8c b5       	in	r24, 0x2c	; 44
     cf4:	8c 7f       	andi	r24, 0xFC	; 252
     cf6:	8c bd       	out	0x2c, r24	; 44
  SPCR |= (sckRateID & 4 ? (1 << SPR1) : 0)
    | (sckRateID & 2 ? (1 << SPR0) : 0);
     cf8:	4c b5       	in	r20, 0x2c	; 44
     cfa:	22 fd       	sbrc	r18, 2
     cfc:	02 c0       	rjmp	.+4      	; 0xd02 <_ZN7Sd2Card10setSckRateEh+0x36>
     cfe:	90 e0       	ldi	r25, 0x00	; 0
     d00:	01 c0       	rjmp	.+2      	; 0xd04 <_ZN7Sd2Card10setSckRateEh+0x38>
     d02:	92 e0       	ldi	r25, 0x02	; 2
     d04:	36 95       	lsr	r19
     d06:	27 95       	ror	r18
     d08:	82 2f       	mov	r24, r18
     d0a:	81 70       	andi	r24, 0x01	; 1
     d0c:	84 2b       	or	r24, r20
     d0e:	89 2b       	or	r24, r25
     d10:	8c bd       	out	0x2c, r24	; 44
     d12:	81 e0       	ldi	r24, 0x01	; 1
  return true;
}
     d14:	08 95       	ret

00000d16 <_ZN7Sd2Card11waitNotBusyEj>:
//------------------------------------------------------------------------------
// wait for card to go not busy
uint8_t Sd2Card::waitNotBusy(uint16_t timeoutMillis) {
     d16:	ff 92       	push	r15
     d18:	0f 93       	push	r16
     d1a:	1f 93       	push	r17
     d1c:	cf 93       	push	r28
     d1e:	df 93       	push	r29
     d20:	8b 01       	movw	r16, r22
  uint16_t t0 = millis();
     d22:	0e 94 a0 1d 	call	0x3b40	; 0x3b40 <millis>
     d26:	eb 01       	movw	r28, r22
//------------------------------------------------------------------------------
#ifndef SOFTWARE_SPI
// functions for hardware SPI
/** Send a byte to the card */
static void spiSend(uint8_t b) {
  SPDR = b;
     d28:	ff 24       	eor	r15, r15
     d2a:	fa 94       	dec	r15
     d2c:	fe bc       	out	0x2e, r15	; 46
  while (!(SPSR & (1 << SPIF)));
     d2e:	0d b4       	in	r0, 0x2d	; 45
     d30:	07 fe       	sbrs	r0, 7
     d32:	fd cf       	rjmp	.-6      	; 0xd2e <_ZN7Sd2Card11waitNotBusyEj+0x18>
}
/** Receive a byte from the card */
static  uint8_t spiRec(void) {
  spiSend(0XFF);
  return SPDR;
     d34:	8e b5       	in	r24, 0x2e	; 46
//------------------------------------------------------------------------------
// wait for card to go not busy
uint8_t Sd2Card::waitNotBusy(uint16_t timeoutMillis) {
  uint16_t t0 = millis();
  do {
    if (spiRec() == 0XFF) return true;
     d36:	8f 3f       	cpi	r24, 0xFF	; 255
     d38:	11 f4       	brne	.+4      	; 0xd3e <_ZN7Sd2Card11waitNotBusyEj+0x28>
     d3a:	81 e0       	ldi	r24, 0x01	; 1
     d3c:	08 c0       	rjmp	.+16     	; 0xd4e <_ZN7Sd2Card11waitNotBusyEj+0x38>
}
//------------------------------------------------------------------------------
// wait for card to go not busy
uint8_t Sd2Card::waitNotBusy(uint16_t timeoutMillis) {
  uint16_t t0 = millis();
  do {
     d3e:	0e 94 a0 1d 	call	0x3b40	; 0x3b40 <millis>
     d42:	6c 1b       	sub	r22, r28
     d44:	7d 0b       	sbc	r23, r29
     d46:	60 17       	cp	r22, r16
     d48:	71 07       	cpc	r23, r17
     d4a:	80 f3       	brcs	.-32     	; 0xd2c <_ZN7Sd2Card11waitNotBusyEj+0x16>
     d4c:	80 e0       	ldi	r24, 0x00	; 0
    if (spiRec() == 0XFF) return true;
  }
  while (((uint16_t)millis() - t0) < timeoutMillis);
  return false;
}
     d4e:	df 91       	pop	r29
     d50:	cf 91       	pop	r28
     d52:	1f 91       	pop	r17
     d54:	0f 91       	pop	r16
     d56:	ff 90       	pop	r15
     d58:	08 95       	ret

00000d5a <_ZN7Sd2Card13chipSelectLowEv>:
void Sd2Card::chipSelectHigh(void) {
  digitalWrite(chipSelectPin_, HIGH);
}
//------------------------------------------------------------------------------
void Sd2Card::chipSelectLow(void) {
  digitalWrite(chipSelectPin_, LOW);
     d5a:	fc 01       	movw	r30, r24
     d5c:	84 81       	ldd	r24, Z+4	; 0x04
     d5e:	60 e0       	ldi	r22, 0x00	; 0
     d60:	0c 94 81 1e 	jmp	0x3d02	; 0x3d02 <digitalWrite>

00000d64 <_ZN7Sd2Card14chipSelectHighEv>:
    return 0;
  }
}
//------------------------------------------------------------------------------
void Sd2Card::chipSelectHigh(void) {
  digitalWrite(chipSelectPin_, HIGH);
     d64:	fc 01       	movw	r30, r24
     d66:	84 81       	ldd	r24, Z+4	; 0x04
     d68:	61 e0       	ldi	r22, 0x01	; 1
     d6a:	0c 94 81 1e 	jmp	0x3d02	; 0x3d02 <digitalWrite>

00000d6e <_ZN7Sd2Card9writeDataEhPKh>:
  }
  return writeData(WRITE_MULTIPLE_TOKEN, src);
}
//------------------------------------------------------------------------------
// send one block of data for write block or write multiple blocks
uint8_t Sd2Card::writeData(uint8_t token, const uint8_t* src) {
     d6e:	dc 01       	movw	r26, r24
#ifdef OPTIMIZE_HARDWARE_SPI

  // send data - optimized loop
  SPDR = token;
     d70:	6e bd       	out	0x2e, r22	; 46
     d72:	fa 01       	movw	r30, r20
     d74:	20 e0       	ldi	r18, 0x00	; 0
     d76:	30 e0       	ldi	r19, 0x00	; 0

  // send two byte per iteration
  for (uint16_t i = 0; i < 512; i += 2) {
    while (!(SPSR & (1 << SPIF)));
     d78:	0d b4       	in	r0, 0x2d	; 45
     d7a:	07 fe       	sbrs	r0, 7
     d7c:	fd cf       	rjmp	.-6      	; 0xd78 <_ZN7Sd2Card9writeDataEhPKh+0xa>
    SPDR = src[i];
     d7e:	80 81       	ld	r24, Z
     d80:	8e bd       	out	0x2e, r24	; 46
    while (!(SPSR & (1 << SPIF)));
     d82:	0d b4       	in	r0, 0x2d	; 45
     d84:	07 fe       	sbrs	r0, 7
     d86:	fd cf       	rjmp	.-6      	; 0xd82 <_ZN7Sd2Card9writeDataEhPKh+0x14>
    SPDR = src[i+1];
     d88:	81 81       	ldd	r24, Z+1	; 0x01
     d8a:	8e bd       	out	0x2e, r24	; 46

  // send data - optimized loop
  SPDR = token;

  // send two byte per iteration
  for (uint16_t i = 0; i < 512; i += 2) {
     d8c:	2e 5f       	subi	r18, 0xFE	; 254
     d8e:	3f 4f       	sbci	r19, 0xFF	; 255
     d90:	32 96       	adiw	r30, 0x02	; 2
     d92:	82 e0       	ldi	r24, 0x02	; 2
     d94:	20 30       	cpi	r18, 0x00	; 0
     d96:	38 07       	cpc	r19, r24
     d98:	79 f7       	brne	.-34     	; 0xd78 <_ZN7Sd2Card9writeDataEhPKh+0xa>
    while (!(SPSR & (1 << SPIF)));
    SPDR = src[i+1];
  }

  // wait for last data byte
  while (!(SPSR & (1 << SPIF)));
     d9a:	0d b4       	in	r0, 0x2d	; 45
     d9c:	07 fe       	sbrs	r0, 7
     d9e:	fd cf       	rjmp	.-6      	; 0xd9a <_ZN7Sd2Card9writeDataEhPKh+0x2c>
//------------------------------------------------------------------------------
#ifndef SOFTWARE_SPI
// functions for hardware SPI
/** Send a byte to the card */
static void spiSend(uint8_t b) {
  SPDR = b;
     da0:	8f ef       	ldi	r24, 0xFF	; 255
     da2:	8e bd       	out	0x2e, r24	; 46
  while (!(SPSR & (1 << SPIF)));
     da4:	0d b4       	in	r0, 0x2d	; 45
     da6:	07 fe       	sbrs	r0, 7
     da8:	fd cf       	rjmp	.-6      	; 0xda4 <_ZN7Sd2Card9writeDataEhPKh+0x36>
//------------------------------------------------------------------------------
#ifndef SOFTWARE_SPI
// functions for hardware SPI
/** Send a byte to the card */
static void spiSend(uint8_t b) {
  SPDR = b;
     daa:	8f ef       	ldi	r24, 0xFF	; 255
     dac:	8e bd       	out	0x2e, r24	; 46
  while (!(SPSR & (1 << SPIF)));
     dae:	0d b4       	in	r0, 0x2d	; 45
     db0:	07 fe       	sbrs	r0, 7
     db2:	fd cf       	rjmp	.-6      	; 0xdae <_ZN7Sd2Card9writeDataEhPKh+0x40>
//------------------------------------------------------------------------------
#ifndef SOFTWARE_SPI
// functions for hardware SPI
/** Send a byte to the card */
static void spiSend(uint8_t b) {
  SPDR = b;
     db4:	8f ef       	ldi	r24, 0xFF	; 255
     db6:	8e bd       	out	0x2e, r24	; 46
  while (!(SPSR & (1 << SPIF)));
     db8:	0d b4       	in	r0, 0x2d	; 45
     dba:	07 fe       	sbrs	r0, 7
     dbc:	fd cf       	rjmp	.-6      	; 0xdb8 <_ZN7Sd2Card9writeDataEhPKh+0x4a>
}
/** Receive a byte from the card */
static  uint8_t spiRec(void) {
  spiSend(0XFF);
  return SPDR;
     dbe:	8e b5       	in	r24, 0x2e	; 46
  }
#endif  // OPTIMIZE_HARDWARE_SPI
  spiSend(0xff);  // dummy crc
  spiSend(0xff);  // dummy crc

  status_ = spiRec();
     dc0:	1a 96       	adiw	r26, 0x0a	; 10
     dc2:	8c 93       	st	X, r24
     dc4:	1a 97       	sbiw	r26, 0x0a	; 10
  if ((status_ & DATA_RES_MASK) != DATA_RES_ACCEPTED) {
     dc6:	8f 71       	andi	r24, 0x1F	; 31
     dc8:	85 30       	cpi	r24, 0x05	; 5
     dca:	11 f4       	brne	.+4      	; 0xdd0 <_ZN7Sd2Card9writeDataEhPKh+0x62>
     dcc:	81 e0       	ldi	r24, 0x01	; 1
     dce:	08 95       	ret
     dd0:	81 e1       	ldi	r24, 0x11	; 17
     dd2:	15 96       	adiw	r26, 0x05	; 5
     dd4:	8c 93       	st	X, r24
     dd6:	15 97       	sbiw	r26, 0x05	; 5
    error(SD_CARD_ERROR_WRITE);
    chipSelectHigh();
     dd8:	cd 01       	movw	r24, r26
     dda:	c4 df       	rcall	.-120    	; 0xd64 <_ZN7Sd2Card14chipSelectHighEv>
     ddc:	80 e0       	ldi	r24, 0x00	; 0
     dde:	08 95       	ret

00000de0 <_ZN7Sd2Card14waitStartBlockEv>:
  while (((uint16_t)millis() - t0) < timeoutMillis);
  return false;
}
//------------------------------------------------------------------------------
/** Wait for start block token */
uint8_t Sd2Card::waitStartBlock(void) {
     de0:	ff 92       	push	r15
     de2:	0f 93       	push	r16
     de4:	1f 93       	push	r17
     de6:	cf 93       	push	r28
     de8:	df 93       	push	r29
     dea:	ec 01       	movw	r28, r24
  uint16_t t0 = millis();
     dec:	0e 94 a0 1d 	call	0x3b40	; 0x3b40 <millis>
     df0:	8b 01       	movw	r16, r22
//------------------------------------------------------------------------------
#ifndef SOFTWARE_SPI
// functions for hardware SPI
/** Send a byte to the card */
static void spiSend(uint8_t b) {
  SPDR = b;
     df2:	ff 24       	eor	r15, r15
     df4:	fa 94       	dec	r15
     df6:	09 c0       	rjmp	.+18     	; 0xe0a <_ZN7Sd2Card14waitStartBlockEv+0x2a>
//------------------------------------------------------------------------------
/** Wait for start block token */
uint8_t Sd2Card::waitStartBlock(void) {
  uint16_t t0 = millis();
  while ((status_ = spiRec()) == 0XFF) {
    if (((uint16_t)millis() - t0) > SD_READ_TIMEOUT) {
     df8:	0e 94 a0 1d 	call	0x3b40	; 0x3b40 <millis>
     dfc:	60 1b       	sub	r22, r16
     dfe:	71 0b       	sbc	r23, r17
     e00:	6d 52       	subi	r22, 0x2D	; 45
     e02:	71 40       	sbci	r23, 0x01	; 1
     e04:	10 f0       	brcs	.+4      	; 0xe0a <_ZN7Sd2Card14waitStartBlockEv+0x2a>
     e06:	8f e0       	ldi	r24, 0x0F	; 15
     e08:	0d c0       	rjmp	.+26     	; 0xe24 <_ZN7Sd2Card14waitStartBlockEv+0x44>
//------------------------------------------------------------------------------
#ifndef SOFTWARE_SPI
// functions for hardware SPI
/** Send a byte to the card */
static void spiSend(uint8_t b) {
  SPDR = b;
     e0a:	fe bc       	out	0x2e, r15	; 46
  while (!(SPSR & (1 << SPIF)));
     e0c:	0d b4       	in	r0, 0x2d	; 45
     e0e:	07 fe       	sbrs	r0, 7
     e10:	fd cf       	rjmp	.-6      	; 0xe0c <_ZN7Sd2Card14waitStartBlockEv+0x2c>
}
/** Receive a byte from the card */
static  uint8_t spiRec(void) {
  spiSend(0XFF);
  return SPDR;
     e12:	8e b5       	in	r24, 0x2e	; 46
}
//------------------------------------------------------------------------------
/** Wait for start block token */
uint8_t Sd2Card::waitStartBlock(void) {
  uint16_t t0 = millis();
  while ((status_ = spiRec()) == 0XFF) {
     e14:	8a 87       	std	Y+10, r24	; 0x0a
     e16:	8f 3f       	cpi	r24, 0xFF	; 255
     e18:	79 f3       	breq	.-34     	; 0xdf8 <_ZN7Sd2Card14waitStartBlockEv+0x18>
    if (((uint16_t)millis() - t0) > SD_READ_TIMEOUT) {
      error(SD_CARD_ERROR_READ_TIMEOUT);
      goto fail;
    }
  }
  if (status_ != DATA_START_BLOCK) {
     e1a:	8e 3f       	cpi	r24, 0xFE	; 254
     e1c:	11 f4       	brne	.+4      	; 0xe22 <_ZN7Sd2Card14waitStartBlockEv+0x42>
     e1e:	81 e0       	ldi	r24, 0x01	; 1
     e20:	05 c0       	rjmp	.+10     	; 0xe2c <_ZN7Sd2Card14waitStartBlockEv+0x4c>
     e22:	8d e0       	ldi	r24, 0x0D	; 13
     e24:	8d 83       	std	Y+5, r24	; 0x05
    goto fail;
  }
  return true;

 fail:
  chipSelectHigh();
     e26:	ce 01       	movw	r24, r28
     e28:	9d df       	rcall	.-198    	; 0xd64 <_ZN7Sd2Card14chipSelectHighEv>
     e2a:	80 e0       	ldi	r24, 0x00	; 0
     e2c:	df 91       	pop	r29
  return false;
}
     e2e:	cf 91       	pop	r28
     e30:	1f 91       	pop	r17
     e32:	0f 91       	pop	r16
     e34:	ff 90       	pop	r15
     e36:	08 95       	ret

00000e38 <_ZN7Sd2Card7readEndEv>:
  chipSelectHigh();
  return false;
}
//------------------------------------------------------------------------------
/** Skip remaining data in a block when in partial block read mode. */
void Sd2Card::readEnd(void) {
     e38:	cf 93       	push	r28
     e3a:	df 93       	push	r29
     e3c:	ec 01       	movw	r28, r24
  if (inBlock_) {
     e3e:	8e 81       	ldd	r24, Y+6	; 0x06
     e40:	88 23       	and	r24, r24
     e42:	c9 f0       	breq	.+50     	; 0xe76 <_ZN7Sd2Card7readEndEv+0x3e>
      // skip data and crc
#ifdef OPTIMIZE_HARDWARE_SPI
    // optimize skip for hardware
    SPDR = 0XFF;
     e44:	8f ef       	ldi	r24, 0xFF	; 255
     e46:	8e bd       	out	0x2e, r24	; 46
     e48:	2f 81       	ldd	r18, Y+7	; 0x07
     e4a:	38 85       	ldd	r19, Y+8	; 0x08
    while (offset_++ < 513) {
      while (!(SPSR & (1 << SPIF)));
      SPDR = 0XFF;
     e4c:	4f ef       	ldi	r20, 0xFF	; 255
     e4e:	04 c0       	rjmp	.+8      	; 0xe58 <_ZN7Sd2Card7readEndEv+0x20>
      // skip data and crc
#ifdef OPTIMIZE_HARDWARE_SPI
    // optimize skip for hardware
    SPDR = 0XFF;
    while (offset_++ < 513) {
      while (!(SPSR & (1 << SPIF)));
     e50:	0d b4       	in	r0, 0x2d	; 45
     e52:	07 fe       	sbrs	r0, 7
     e54:	fd cf       	rjmp	.-6      	; 0xe50 <_ZN7Sd2Card7readEndEv+0x18>
      SPDR = 0XFF;
     e56:	4e bd       	out	0x2e, r20	; 46
     e58:	2f 5f       	subi	r18, 0xFF	; 255
     e5a:	3f 4f       	sbci	r19, 0xFF	; 255
  if (inBlock_) {
      // skip data and crc
#ifdef OPTIMIZE_HARDWARE_SPI
    // optimize skip for hardware
    SPDR = 0XFF;
    while (offset_++ < 513) {
     e5c:	c9 01       	movw	r24, r18
     e5e:	01 97       	sbiw	r24, 0x01	; 1
     e60:	81 50       	subi	r24, 0x01	; 1
     e62:	92 40       	sbci	r25, 0x02	; 2
     e64:	a8 f3       	brcs	.-22     	; 0xe50 <_ZN7Sd2Card7readEndEv+0x18>
     e66:	38 87       	std	Y+8, r19	; 0x08
     e68:	2f 83       	std	Y+7, r18	; 0x07
      while (!(SPSR & (1 << SPIF)));
      SPDR = 0XFF;
    }
    // wait for last crc byte
    while (!(SPSR & (1 << SPIF)));
     e6a:	0d b4       	in	r0, 0x2d	; 45
     e6c:	07 fe       	sbrs	r0, 7
     e6e:	fd cf       	rjmp	.-6      	; 0xe6a <_ZN7Sd2Card7readEndEv+0x32>
#else  // OPTIMIZE_HARDWARE_SPI
    while (offset_++ < 514) spiRec();
#endif  // OPTIMIZE_HARDWARE_SPI
    chipSelectHigh();
     e70:	ce 01       	movw	r24, r28
     e72:	78 df       	rcall	.-272    	; 0xd64 <_ZN7Sd2Card14chipSelectHighEv>
     e74:	1e 82       	std	Y+6, r1	; 0x06
    inBlock_ = 0;
     e76:	df 91       	pop	r29
  }
}
     e78:	cf 91       	pop	r28
     e7a:	08 95       	ret

00000e7c <_ZN7Sd2Card11cardCommandEhm>:
  sei();
}
#endif  // SOFTWARE_SPI
//------------------------------------------------------------------------------
// send command and return error code.  Return zero for OK
uint8_t Sd2Card::cardCommand(uint8_t cmd, uint32_t arg) {
     e7c:	df 92       	push	r13
     e7e:	ef 92       	push	r14
     e80:	ff 92       	push	r15
     e82:	0f 93       	push	r16
     e84:	1f 93       	push	r17
     e86:	cf 93       	push	r28
     e88:	df 93       	push	r29
     e8a:	ec 01       	movw	r28, r24
     e8c:	d6 2e       	mov	r13, r22
     e8e:	79 01       	movw	r14, r18
     e90:	8a 01       	movw	r16, r20
  // end read if in partialBlockRead mode
  readEnd();
     e92:	d2 df       	rcall	.-92     	; 0xe38 <_ZN7Sd2Card7readEndEv>
     e94:	ce 01       	movw	r24, r28

  // select card
  chipSelectLow();
     e96:	61 df       	rcall	.-318    	; 0xd5a <_ZN7Sd2Card13chipSelectLowEv>
     e98:	ce 01       	movw	r24, r28
     e9a:	6c e2       	ldi	r22, 0x2C	; 44

  // wait up to 300 ms if busy
  waitNotBusy(300);
     e9c:	71 e0       	ldi	r23, 0x01	; 1
     e9e:	3b df       	rcall	.-394    	; 0xd16 <_ZN7Sd2Card11waitNotBusyEj>
     ea0:	8d 2d       	mov	r24, r13
     ea2:	80 64       	ori	r24, 0x40	; 64
     ea4:	8e bd       	out	0x2e, r24	; 46

  // send command
  spiSend(cmd | 0x40);
     ea6:	0d b4       	in	r0, 0x2d	; 45
     ea8:	07 fe       	sbrs	r0, 7
//------------------------------------------------------------------------------
#ifndef SOFTWARE_SPI
// functions for hardware SPI
/** Send a byte to the card */
static void spiSend(uint8_t b) {
  SPDR = b;
     eaa:	fd cf       	rjmp	.-6      	; 0xea6 <_ZN7Sd2Card11cardCommandEhm+0x2a>
  while (!(SPSR & (1 << SPIF)));
     eac:	28 e1       	ldi	r18, 0x18	; 24
     eae:	30 e0       	ldi	r19, 0x00	; 0
     eb0:	d8 01       	movw	r26, r16
     eb2:	c7 01       	movw	r24, r14
     eb4:	02 2e       	mov	r0, r18

  // send command
  spiSend(cmd | 0x40);

  // send argument
  for (int8_t s = 24; s >= 0; s -= 8) spiSend(arg >> s);
     eb6:	04 c0       	rjmp	.+8      	; 0xec0 <_ZN7Sd2Card11cardCommandEhm+0x44>
     eb8:	b6 95       	lsr	r27
     eba:	a7 95       	ror	r26
     ebc:	97 95       	ror	r25
     ebe:	87 95       	ror	r24
     ec0:	0a 94       	dec	r0
     ec2:	d2 f7       	brpl	.-12     	; 0xeb8 <_ZN7Sd2Card11cardCommandEhm+0x3c>
     ec4:	8e bd       	out	0x2e, r24	; 46
     ec6:	0d b4       	in	r0, 0x2d	; 45
     ec8:	07 fe       	sbrs	r0, 7
//------------------------------------------------------------------------------
#ifndef SOFTWARE_SPI
// functions for hardware SPI
/** Send a byte to the card */
static void spiSend(uint8_t b) {
  SPDR = b;
     eca:	fd cf       	rjmp	.-6      	; 0xec6 <_ZN7Sd2Card11cardCommandEhm+0x4a>
  while (!(SPSR & (1 << SPIF)));
     ecc:	28 50       	subi	r18, 0x08	; 8
     ece:	30 40       	sbci	r19, 0x00	; 0
     ed0:	8f ef       	ldi	r24, 0xFF	; 255
     ed2:	28 3f       	cpi	r18, 0xF8	; 248
     ed4:	38 07       	cpc	r19, r24

  // send command
  spiSend(cmd | 0x40);

  // send argument
  for (int8_t s = 24; s >= 0; s -= 8) spiSend(arg >> s);
     ed6:	61 f7       	brne	.-40     	; 0xeb0 <_ZN7Sd2Card11cardCommandEhm+0x34>
     ed8:	dd 20       	and	r13, r13
     eda:	11 f4       	brne	.+4      	; 0xee0 <_ZN7Sd2Card11cardCommandEhm+0x64>
     edc:	85 e9       	ldi	r24, 0x95	; 149

  // send CRC
  uint8_t crc = 0XFF;
  if (cmd == CMD0) crc = 0X95;  // correct crc for CMD0 with arg 0
     ede:	06 c0       	rjmp	.+12     	; 0xeec <_ZN7Sd2Card11cardCommandEhm+0x70>
     ee0:	88 e0       	ldi	r24, 0x08	; 8
     ee2:	d8 16       	cp	r13, r24
     ee4:	11 f4       	brne	.+4      	; 0xeea <_ZN7Sd2Card11cardCommandEhm+0x6e>
  if (cmd == CMD8) crc = 0X87;  // correct crc for CMD8 with arg 0X1AA
     ee6:	87 e8       	ldi	r24, 0x87	; 135
     ee8:	01 c0       	rjmp	.+2      	; 0xeec <_ZN7Sd2Card11cardCommandEhm+0x70>
     eea:	8f ef       	ldi	r24, 0xFF	; 255
     eec:	8e bd       	out	0x2e, r24	; 46
     eee:	0d b4       	in	r0, 0x2d	; 45
     ef0:	07 fe       	sbrs	r0, 7
//------------------------------------------------------------------------------
#ifndef SOFTWARE_SPI
// functions for hardware SPI
/** Send a byte to the card */
static void spiSend(uint8_t b) {
  SPDR = b;
     ef2:	fd cf       	rjmp	.-6      	; 0xeee <_ZN7Sd2Card11cardCommandEhm+0x72>
  while (!(SPSR & (1 << SPIF)));
     ef4:	90 e0       	ldi	r25, 0x00	; 0
     ef6:	2f ef       	ldi	r18, 0xFF	; 255
     ef8:	2e bd       	out	0x2e, r18	; 46
     efa:	0d b4       	in	r0, 0x2d	; 45
//------------------------------------------------------------------------------
#ifndef SOFTWARE_SPI
// functions for hardware SPI
/** Send a byte to the card */
static void spiSend(uint8_t b) {
  SPDR = b;
     efc:	07 fe       	sbrs	r0, 7
     efe:	fd cf       	rjmp	.-6      	; 0xefa <_ZN7Sd2Card11cardCommandEhm+0x7e>
  while (!(SPSR & (1 << SPIF)));
     f00:	8e b5       	in	r24, 0x2e	; 46
     f02:	87 ff       	sbrs	r24, 7
     f04:	02 c0       	rjmp	.+4      	; 0xf0a <_ZN7Sd2Card11cardCommandEhm+0x8e>
}
/** Receive a byte from the card */
static  uint8_t spiRec(void) {
  spiSend(0XFF);
  return SPDR;
     f06:	91 50       	subi	r25, 0x01	; 1
  if (cmd == CMD0) crc = 0X95;  // correct crc for CMD0 with arg 0
  if (cmd == CMD8) crc = 0X87;  // correct crc for CMD8 with arg 0X1AA
  spiSend(crc);

  // wait for response
  for (uint8_t i = 0; ((status_ = spiRec()) & 0X80) && i != 0XFF; i++);
     f08:	b9 f7       	brne	.-18     	; 0xef8 <_ZN7Sd2Card11cardCommandEhm+0x7c>
     f0a:	8a 87       	std	Y+10, r24	; 0x0a
     f0c:	df 91       	pop	r29
     f0e:	cf 91       	pop	r28
     f10:	1f 91       	pop	r17
  return status_;
}
     f12:	0f 91       	pop	r16
     f14:	ff 90       	pop	r15
     f16:	ef 90       	pop	r14
     f18:	df 90       	pop	r13
     f1a:	08 95       	ret

00000f1c <_ZN7Sd2Card10writeBlockEmPKh>:
 * \param[in] blockNumber Logical block to be written.
 * \param[in] src Pointer to the location of the data to be written.
 * \return The value one, true, is returned for success and
 * the value zero, false, is returned for failure.
 */
uint8_t Sd2Card::writeBlock(uint32_t blockNumber, const uint8_t* src) {
     f1c:	cf 92       	push	r12
     f1e:	df 92       	push	r13
     f20:	ef 92       	push	r14
     f22:	ff 92       	push	r15
     f24:	0f 93       	push	r16
     f26:	1f 93       	push	r17
     f28:	cf 93       	push	r28
     f2a:	df 93       	push	r29
     f2c:	ec 01       	movw	r28, r24
     f2e:	7a 01       	movw	r14, r20
     f30:	8b 01       	movw	r16, r22
     f32:	69 01       	movw	r12, r18
#if SD_PROTECT_BLOCK_ZERO
  // don't allow write to first block
  if (blockNumber == 0) {
     f34:	41 15       	cp	r20, r1
     f36:	51 05       	cpc	r21, r1
     f38:	61 05       	cpc	r22, r1
     f3a:	71 05       	cpc	r23, r1
     f3c:	11 f4       	brne	.+4      	; 0xf42 <_ZN7Sd2Card10writeBlockEmPKh+0x26>
     f3e:	82 e1       	ldi	r24, 0x12	; 18
     f40:	33 c0       	rjmp	.+102    	; 0xfa8 <_ZN7Sd2Card10writeBlockEmPKh+0x8c>
    goto fail;
  }
#endif  // SD_PROTECT_BLOCK_ZERO

  // use address if not SDHC card
  if (type() != SD_CARD_TYPE_SDHC) blockNumber <<= 9;
     f42:	8b 85       	ldd	r24, Y+11	; 0x0b
     f44:	83 30       	cpi	r24, 0x03	; 3
     f46:	39 f0       	breq	.+14     	; 0xf56 <_ZN7Sd2Card10writeBlockEmPKh+0x3a>
     f48:	29 e0       	ldi	r18, 0x09	; 9
     f4a:	ee 0c       	add	r14, r14
     f4c:	ff 1c       	adc	r15, r15
     f4e:	00 1f       	adc	r16, r16
     f50:	11 1f       	adc	r17, r17
     f52:	2a 95       	dec	r18
     f54:	d1 f7       	brne	.-12     	; 0xf4a <_ZN7Sd2Card10writeBlockEmPKh+0x2e>
  if (cardCommand(CMD24, blockNumber)) {
     f56:	ce 01       	movw	r24, r28
     f58:	68 e1       	ldi	r22, 0x18	; 24
     f5a:	a8 01       	movw	r20, r16
     f5c:	97 01       	movw	r18, r14
     f5e:	8e df       	rcall	.-228    	; 0xe7c <_ZN7Sd2Card11cardCommandEhm>
     f60:	88 23       	and	r24, r24
     f62:	11 f0       	breq	.+4      	; 0xf68 <_ZN7Sd2Card10writeBlockEmPKh+0x4c>
     f64:	84 e0       	ldi	r24, 0x04	; 4
     f66:	20 c0       	rjmp	.+64     	; 0xfa8 <_ZN7Sd2Card10writeBlockEmPKh+0x8c>
     f68:	ce 01       	movw	r24, r28
    error(SD_CARD_ERROR_CMD24);
    goto fail;
  }
  if (!writeData(DATA_START_BLOCK, src)) goto fail;
     f6a:	6e ef       	ldi	r22, 0xFE	; 254
     f6c:	a6 01       	movw	r20, r12
     f6e:	ff de       	rcall	.-514    	; 0xd6e <_ZN7Sd2Card9writeDataEhPKh>
     f70:	88 23       	and	r24, r24
     f72:	d9 f0       	breq	.+54     	; 0xfaa <_ZN7Sd2Card10writeBlockEmPKh+0x8e>
     f74:	ce 01       	movw	r24, r28
     f76:	68 e5       	ldi	r22, 0x58	; 88

  // wait for flash programming to complete
  if (!waitNotBusy(SD_WRITE_TIMEOUT)) {
     f78:	72 e0       	ldi	r23, 0x02	; 2
     f7a:	cd de       	rcall	.-614    	; 0xd16 <_ZN7Sd2Card11waitNotBusyEj>
     f7c:	88 23       	and	r24, r24
     f7e:	11 f4       	brne	.+4      	; 0xf84 <_ZN7Sd2Card10writeBlockEmPKh+0x68>
     f80:	85 e1       	ldi	r24, 0x15	; 21
     f82:	12 c0       	rjmp	.+36     	; 0xfa8 <_ZN7Sd2Card10writeBlockEmPKh+0x8c>
     f84:	ce 01       	movw	r24, r28
     f86:	6d e0       	ldi	r22, 0x0D	; 13
     f88:	20 e0       	ldi	r18, 0x00	; 0
    error(SD_CARD_ERROR_WRITE_TIMEOUT);
    goto fail;
  }
  // response is r2 so get and check two bytes for nonzero
  if (cardCommand(CMD13, 0) || spiRec()) {
     f8a:	30 e0       	ldi	r19, 0x00	; 0
     f8c:	40 e0       	ldi	r20, 0x00	; 0
     f8e:	50 e0       	ldi	r21, 0x00	; 0
     f90:	75 df       	rcall	.-278    	; 0xe7c <_ZN7Sd2Card11cardCommandEhm>
     f92:	88 23       	and	r24, r24
     f94:	41 f4       	brne	.+16     	; 0xfa6 <_ZN7Sd2Card10writeBlockEmPKh+0x8a>
     f96:	8f ef       	ldi	r24, 0xFF	; 255
     f98:	8e bd       	out	0x2e, r24	; 46
     f9a:	0d b4       	in	r0, 0x2d	; 45
     f9c:	07 fe       	sbrs	r0, 7
//------------------------------------------------------------------------------
#ifndef SOFTWARE_SPI
// functions for hardware SPI
/** Send a byte to the card */
static void spiSend(uint8_t b) {
  SPDR = b;
     f9e:	fd cf       	rjmp	.-6      	; 0xf9a <_ZN7Sd2Card10writeBlockEmPKh+0x7e>
     fa0:	8e b5       	in	r24, 0x2e	; 46
  while (!(SPSR & (1 << SPIF)));
     fa2:	88 23       	and	r24, r24
     fa4:	71 f0       	breq	.+28     	; 0xfc2 <_ZN7Sd2Card10writeBlockEmPKh+0xa6>
     fa6:	84 e1       	ldi	r24, 0x14	; 20
}
/** Receive a byte from the card */
static  uint8_t spiRec(void) {
  spiSend(0XFF);
  return SPDR;
     fa8:	8d 83       	std	Y+5, r24	; 0x05
     faa:	ce 01       	movw	r24, r28
     fac:	db de       	rcall	.-586    	; 0xd64 <_ZN7Sd2Card14chipSelectHighEv>
     fae:	80 e0       	ldi	r24, 0x00	; 0
     fb0:	df 91       	pop	r29
  }
  chipSelectHigh();
  return true;

 fail:
  chipSelectHigh();
     fb2:	cf 91       	pop	r28
     fb4:	1f 91       	pop	r17
     fb6:	0f 91       	pop	r16
     fb8:	ff 90       	pop	r15
  return false;
}
     fba:	ef 90       	pop	r14
     fbc:	df 90       	pop	r13
     fbe:	cf 90       	pop	r12
     fc0:	08 95       	ret
     fc2:	ce 01       	movw	r24, r28
     fc4:	cf de       	rcall	.-610    	; 0xd64 <_ZN7Sd2Card14chipSelectHighEv>
     fc6:	81 e0       	ldi	r24, 0x01	; 1
     fc8:	f3 cf       	rjmp	.-26     	; 0xfb0 <_ZN7Sd2Card10writeBlockEmPKh+0x94>

00000fca <_ZN7Sd2Card8readDataEmjjPh>:
 * \param[in] count Number of bytes to read
 * \return The value one, true, is returned for success and
 * the value zero, false, is returned for failure.
 */
uint8_t Sd2Card::readData(uint32_t block,
        uint16_t offset, uint16_t count, uint8_t* dst) {
     fca:	8f 92       	push	r8
     fcc:	9f 92       	push	r9
     fce:	af 92       	push	r10
     fd0:	bf 92       	push	r11
     fd2:	cf 92       	push	r12
     fd4:	df 92       	push	r13
     fd6:	ef 92       	push	r14
     fd8:	ff 92       	push	r15
     fda:	0f 93       	push	r16
     fdc:	1f 93       	push	r17
     fde:	cf 93       	push	r28
     fe0:	df 93       	push	r29
     fe2:	ec 01       	movw	r28, r24
     fe4:	5a 01       	movw	r10, r20
     fe6:	6b 01       	movw	r12, r22
     fe8:	49 01       	movw	r8, r18
  uint16_t n;
  if (count == 0) return true;
     fea:	01 15       	cp	r16, r1
     fec:	11 05       	cpc	r17, r1
     fee:	09 f4       	brne	.+2      	; 0xff2 <_ZN7Sd2Card8readDataEmjjPh+0x28>
     ff0:	77 c0       	rjmp	.+238    	; 0x10e0 <_ZN7Sd2Card8readDataEmjjPh+0x116>
  if ((count + offset) > 512) {
     ff2:	c8 01       	movw	r24, r16
     ff4:	82 0f       	add	r24, r18
     ff6:	93 1f       	adc	r25, r19
     ff8:	81 50       	subi	r24, 0x01	; 1
     ffa:	92 40       	sbci	r25, 0x02	; 2
     ffc:	08 f0       	brcs	.+2      	; 0x1000 <_ZN7Sd2Card8readDataEmjjPh+0x36>
     ffe:	6c c0       	rjmp	.+216    	; 0x10d8 <_ZN7Sd2Card8readDataEmjjPh+0x10e>
    goto fail;
  }
  if (!inBlock_ || block != block_ || offset < offset_) {
    1000:	8e 81       	ldd	r24, Y+6	; 0x06
    1002:	88 23       	and	r24, r24
    1004:	71 f0       	breq	.+28     	; 0x1022 <_ZN7Sd2Card8readDataEmjjPh+0x58>
    1006:	88 81       	ld	r24, Y
    1008:	99 81       	ldd	r25, Y+1	; 0x01
    100a:	aa 81       	ldd	r26, Y+2	; 0x02
    100c:	bb 81       	ldd	r27, Y+3	; 0x03
    100e:	48 17       	cp	r20, r24
    1010:	59 07       	cpc	r21, r25
    1012:	6a 07       	cpc	r22, r26
    1014:	7b 07       	cpc	r23, r27
    1016:	29 f4       	brne	.+10     	; 0x1022 <_ZN7Sd2Card8readDataEmjjPh+0x58>
    1018:	8f 81       	ldd	r24, Y+7	; 0x07
    101a:	98 85       	ldd	r25, Y+8	; 0x08
    101c:	88 16       	cp	r8, r24
    101e:	99 06       	cpc	r9, r25
    1020:	08 f5       	brcc	.+66     	; 0x1064 <_ZN7Sd2Card8readDataEmjjPh+0x9a>
    block_ = block;
    1022:	a8 82       	st	Y, r10
    1024:	b9 82       	std	Y+1, r11	; 0x01
    1026:	ca 82       	std	Y+2, r12	; 0x02
    1028:	db 82       	std	Y+3, r13	; 0x03
    // use address if not SDHC card
    if (type()!= SD_CARD_TYPE_SDHC) block <<= 9;
    102a:	8b 85       	ldd	r24, Y+11	; 0x0b
    102c:	83 30       	cpi	r24, 0x03	; 3
    102e:	39 f0       	breq	.+14     	; 0x103e <_ZN7Sd2Card8readDataEmjjPh+0x74>
    1030:	69 e0       	ldi	r22, 0x09	; 9
    1032:	aa 0c       	add	r10, r10
    1034:	bb 1c       	adc	r11, r11
    1036:	cc 1c       	adc	r12, r12
    1038:	dd 1c       	adc	r13, r13
    103a:	6a 95       	dec	r22
    103c:	d1 f7       	brne	.-12     	; 0x1032 <_ZN7Sd2Card8readDataEmjjPh+0x68>
    if (cardCommand(CMD17, block)) {
    103e:	ce 01       	movw	r24, r28
    1040:	61 e1       	ldi	r22, 0x11	; 17
    1042:	a6 01       	movw	r20, r12
    1044:	95 01       	movw	r18, r10
    1046:	1a df       	rcall	.-460    	; 0xe7c <_ZN7Sd2Card11cardCommandEhm>
    1048:	88 23       	and	r24, r24
    104a:	19 f0       	breq	.+6      	; 0x1052 <_ZN7Sd2Card8readDataEmjjPh+0x88>
    104c:	83 e0       	ldi	r24, 0x03	; 3
    104e:	8d 83       	std	Y+5, r24	; 0x05
    1050:	43 c0       	rjmp	.+134    	; 0x10d8 <_ZN7Sd2Card8readDataEmjjPh+0x10e>
    1052:	ce 01       	movw	r24, r28
      error(SD_CARD_ERROR_CMD17);
      goto fail;
    }
    if (!waitStartBlock()) {
    1054:	c5 de       	rcall	.-630    	; 0xde0 <_ZN7Sd2Card14waitStartBlockEv>
    1056:	88 23       	and	r24, r24
    1058:	09 f4       	brne	.+2      	; 0x105c <_ZN7Sd2Card8readDataEmjjPh+0x92>
    105a:	3e c0       	rjmp	.+124    	; 0x10d8 <_ZN7Sd2Card8readDataEmjjPh+0x10e>
    105c:	18 86       	std	Y+8, r1	; 0x08
    105e:	1f 82       	std	Y+7, r1	; 0x07
      goto fail;
    }
    offset_ = 0;
    1060:	81 e0       	ldi	r24, 0x01	; 1
    1062:	8e 83       	std	Y+6, r24	; 0x06
    inBlock_ = 1;
    1064:	8f ef       	ldi	r24, 0xFF	; 255
    1066:	8e bd       	out	0x2e, r24	; 46
  }

#ifdef OPTIMIZE_HARDWARE_SPI
  // start first spi transfer
  SPDR = 0XFF;
    1068:	8f 81       	ldd	r24, Y+7	; 0x07
    106a:	98 85       	ldd	r25, Y+8	; 0x08
    106c:	2f ef       	ldi	r18, 0xFF	; 255
    106e:	05 c0       	rjmp	.+10     	; 0x107a <_ZN7Sd2Card8readDataEmjjPh+0xb0>

  // skip data before offset
  for (;offset_ < offset; offset_++) {
    while (!(SPSR & (1 << SPIF)));
    SPDR = 0XFF;
    1070:	0d b4       	in	r0, 0x2d	; 45
    1072:	07 fe       	sbrs	r0, 7
  // start first spi transfer
  SPDR = 0XFF;

  // skip data before offset
  for (;offset_ < offset; offset_++) {
    while (!(SPSR & (1 << SPIF)));
    1074:	fd cf       	rjmp	.-6      	; 0x1070 <_ZN7Sd2Card8readDataEmjjPh+0xa6>
    1076:	2e bd       	out	0x2e, r18	; 46
    1078:	01 96       	adiw	r24, 0x01	; 1
    SPDR = 0XFF;
    107a:	88 15       	cp	r24, r8
    107c:	99 05       	cpc	r25, r9
#ifdef OPTIMIZE_HARDWARE_SPI
  // start first spi transfer
  SPDR = 0XFF;

  // skip data before offset
  for (;offset_ < offset; offset_++) {
    107e:	c0 f3       	brcs	.-16     	; 0x1070 <_ZN7Sd2Card8readDataEmjjPh+0xa6>
    1080:	98 87       	std	Y+8, r25	; 0x08
    1082:	8f 83       	std	Y+7, r24	; 0x07
    1084:	d8 01       	movw	r26, r16
    1086:	11 97       	sbiw	r26, 0x01	; 1
    while (!(SPSR & (1 << SPIF)));
    SPDR = 0XFF;
  }
  // transfer data
  n = count - 1;
    1088:	20 e0       	ldi	r18, 0x00	; 0
    108a:	30 e0       	ldi	r19, 0x00	; 0
    108c:	9f ef       	ldi	r25, 0xFF	; 255
    108e:	0b c0       	rjmp	.+22     	; 0x10a6 <_ZN7Sd2Card8readDataEmjjPh+0xdc>
  for (uint16_t i = 0; i < n; i++) {
    while (!(SPSR & (1 << SPIF)));
    dst[i] = SPDR;
    SPDR = 0XFF;
    1090:	0d b4       	in	r0, 0x2d	; 45
    1092:	07 fe       	sbrs	r0, 7
    SPDR = 0XFF;
  }
  // transfer data
  n = count - 1;
  for (uint16_t i = 0; i < n; i++) {
    while (!(SPSR & (1 << SPIF)));
    1094:	fd cf       	rjmp	.-6      	; 0x1090 <_ZN7Sd2Card8readDataEmjjPh+0xc6>
    1096:	8e b5       	in	r24, 0x2e	; 46
    1098:	f7 01       	movw	r30, r14
    dst[i] = SPDR;
    109a:	e2 0f       	add	r30, r18
    109c:	f3 1f       	adc	r31, r19
    109e:	80 83       	st	Z, r24
    10a0:	9e bd       	out	0x2e, r25	; 46
    10a2:	2f 5f       	subi	r18, 0xFF	; 255
    SPDR = 0XFF;
    10a4:	3f 4f       	sbci	r19, 0xFF	; 255
    while (!(SPSR & (1 << SPIF)));
    SPDR = 0XFF;
  }
  // transfer data
  n = count - 1;
  for (uint16_t i = 0; i < n; i++) {
    10a6:	2a 17       	cp	r18, r26
    10a8:	3b 07       	cpc	r19, r27
    10aa:	90 f3       	brcs	.-28     	; 0x1090 <_ZN7Sd2Card8readDataEmjjPh+0xc6>
    10ac:	0d b4       	in	r0, 0x2d	; 45
    10ae:	07 fe       	sbrs	r0, 7
    while (!(SPSR & (1 << SPIF)));
    dst[i] = SPDR;
    SPDR = 0XFF;
  }
  // wait for last byte
  while (!(SPSR & (1 << SPIF)));
    10b0:	fd cf       	rjmp	.-6      	; 0x10ac <_ZN7Sd2Card8readDataEmjjPh+0xe2>
    10b2:	8e b5       	in	r24, 0x2e	; 46
    10b4:	ae 0d       	add	r26, r14
  dst[n] = SPDR;
    10b6:	bf 1d       	adc	r27, r15
    10b8:	8c 93       	st	X, r24
    10ba:	2f 81       	ldd	r18, Y+7	; 0x07
    10bc:	38 85       	ldd	r19, Y+8	; 0x08
  for (uint16_t i = 0; i < count; i++) {
    dst[i] = spiRec();
  }
#endif  // OPTIMIZE_HARDWARE_SPI

  offset_ += count;
    10be:	20 0f       	add	r18, r16
    10c0:	31 1f       	adc	r19, r17
    10c2:	38 87       	std	Y+8, r19	; 0x08
    10c4:	2f 83       	std	Y+7, r18	; 0x07
    10c6:	89 85       	ldd	r24, Y+9	; 0x09
    10c8:	88 23       	and	r24, r24
  if (!partialBlockRead_ || offset_ >= 512) {
    10ca:	19 f0       	breq	.+6      	; 0x10d2 <_ZN7Sd2Card8readDataEmjjPh+0x108>
    10cc:	20 50       	subi	r18, 0x00	; 0
    10ce:	32 40       	sbci	r19, 0x02	; 2
    10d0:	38 f0       	brcs	.+14     	; 0x10e0 <_ZN7Sd2Card8readDataEmjjPh+0x116>
    10d2:	ce 01       	movw	r24, r28
    10d4:	b1 de       	rcall	.-670    	; 0xe38 <_ZN7Sd2Card7readEndEv>
    // read rest of data, checksum and set chip select high
    readEnd();
    10d6:	04 c0       	rjmp	.+8      	; 0x10e0 <_ZN7Sd2Card8readDataEmjjPh+0x116>
    10d8:	ce 01       	movw	r24, r28
    10da:	44 de       	rcall	.-888    	; 0xd64 <_ZN7Sd2Card14chipSelectHighEv>
    10dc:	80 e0       	ldi	r24, 0x00	; 0
  }
  return true;

 fail:
  chipSelectHigh();
    10de:	01 c0       	rjmp	.+2      	; 0x10e2 <_ZN7Sd2Card8readDataEmjjPh+0x118>
    10e0:	81 e0       	ldi	r24, 0x01	; 1
    10e2:	df 91       	pop	r29
    10e4:	cf 91       	pop	r28
    10e6:	1f 91       	pop	r17
  return false;
    10e8:	0f 91       	pop	r16
}
    10ea:	ff 90       	pop	r15
    10ec:	ef 90       	pop	r14
    10ee:	df 90       	pop	r13
    10f0:	cf 90       	pop	r12
    10f2:	bf 90       	pop	r11
    10f4:	af 90       	pop	r10
    10f6:	9f 90       	pop	r9
    10f8:	8f 90       	pop	r8
    10fa:	08 95       	ret

000010fc <_ZN7Sd2Card9readBlockEmPh>:
 * \param[out] dst Pointer to the location that will receive the data.

 * \return The value one, true, is returned for success and
 * the value zero, false, is returned for failure.
 */
uint8_t Sd2Card::readBlock(uint32_t block, uint8_t* dst) {
    10fc:	ef 92       	push	r14
    10fe:	ff 92       	push	r15
    1100:	0f 93       	push	r16
    1102:	1f 93       	push	r17
    1104:	79 01       	movw	r14, r18
  return readData(block, 0, 512, dst);
    1106:	20 e0       	ldi	r18, 0x00	; 0
    1108:	30 e0       	ldi	r19, 0x00	; 0
    110a:	00 e0       	ldi	r16, 0x00	; 0
    110c:	12 e0       	ldi	r17, 0x02	; 2
    110e:	5d df       	rcall	.-326    	; 0xfca <_ZN7Sd2Card8readDataEmjjPh>
    1110:	1f 91       	pop	r17
}
    1112:	0f 91       	pop	r16
    1114:	ff 90       	pop	r15
    1116:	ef 90       	pop	r14
    1118:	08 95       	ret

0000111a <_ZN7Sd2Card4initEhh>:
 *
 * \return The value one, true, is returned for success and
 * the value zero, false, is returned for failure.  The reason for failure
 * can be determined by calling errorCode() and errorData().
 */
uint8_t Sd2Card::init(uint8_t sckRateID, uint8_t chipSelectPin) {
    111a:	bf 92       	push	r11
    111c:	cf 92       	push	r12
    111e:	df 92       	push	r13
    1120:	ef 92       	push	r14
    1122:	ff 92       	push	r15
    1124:	0f 93       	push	r16
    1126:	1f 93       	push	r17
    1128:	cf 93       	push	r28
    112a:	df 93       	push	r29
    112c:	ec 01       	movw	r28, r24
    112e:	b6 2e       	mov	r11, r22
  errorCode_ = inBlock_ = partialBlockRead_ = type_ = 0;
    1130:	1b 86       	std	Y+11, r1	; 0x0b
    1132:	19 86       	std	Y+9, r1	; 0x09
    1134:	1e 82       	std	Y+6, r1	; 0x06
    1136:	1d 82       	std	Y+5, r1	; 0x05
  chipSelectPin_ = chipSelectPin;
    1138:	4c 83       	std	Y+4, r20	; 0x04
  // 16-bit init start time allows over a minute
  uint16_t t0 = (uint16_t)millis();
    113a:	0e 94 a0 1d 	call	0x3b40	; 0x3b40 <millis>
    113e:	6b 01       	movw	r12, r22
  uint32_t arg;

  // set pin modes
  pinMode(chipSelectPin_, OUTPUT);
    1140:	8c 81       	ldd	r24, Y+4	; 0x04
    1142:	61 e0       	ldi	r22, 0x01	; 1
    1144:	0e 94 42 1e 	call	0x3c84	; 0x3c84 <pinMode>
  chipSelectHigh();
    1148:	ce 01       	movw	r24, r28
    114a:	0c de       	rcall	.-1000   	; 0xd64 <_ZN7Sd2Card14chipSelectHighEv>
    114c:	8c e0       	ldi	r24, 0x0C	; 12
  pinMode(SPI_MISO_PIN, INPUT);
    114e:	60 e0       	ldi	r22, 0x00	; 0
    1150:	0e 94 42 1e 	call	0x3c84	; 0x3c84 <pinMode>
    1154:	8b e0       	ldi	r24, 0x0B	; 11
  pinMode(SPI_MOSI_PIN, OUTPUT);
    1156:	61 e0       	ldi	r22, 0x01	; 1
    1158:	0e 94 42 1e 	call	0x3c84	; 0x3c84 <pinMode>
    115c:	8d e0       	ldi	r24, 0x0D	; 13
  pinMode(SPI_SCK_PIN, OUTPUT);
    115e:	61 e0       	ldi	r22, 0x01	; 1
    1160:	0e 94 42 1e 	call	0x3c84	; 0x3c84 <pinMode>
    1164:	8a e0       	ldi	r24, 0x0A	; 10

#ifndef SOFTWARE_SPI
  // SS must be in output mode even it is not chip select
  pinMode(SS_PIN, OUTPUT);
    1166:	61 e0       	ldi	r22, 0x01	; 1
    1168:	0e 94 42 1e 	call	0x3c84	; 0x3c84 <pinMode>
    116c:	8a e0       	ldi	r24, 0x0A	; 10
  digitalWrite(SS_PIN, HIGH); // disable any SPI device using hardware SS pin
    116e:	61 e0       	ldi	r22, 0x01	; 1
    1170:	0e 94 81 1e 	call	0x3d02	; 0x3d02 <digitalWrite>
    1174:	83 e5       	ldi	r24, 0x53	; 83
  // Enable SPI, Master, clock rate f_osc/128
  SPCR = (1 << SPE) | (1 << MSTR) | (1 << SPR1) | (1 << SPR0);
    1176:	8c bd       	out	0x2c, r24	; 44
    1178:	8d b5       	in	r24, 0x2d	; 45
  // clear double speed
  SPSR &= ~(1 << SPI2X);
    117a:	8e 7f       	andi	r24, 0xFE	; 254
    117c:	8d bd       	out	0x2d, r24	; 45
    117e:	80 e0       	ldi	r24, 0x00	; 0
    1180:	9f ef       	ldi	r25, 0xFF	; 255
//------------------------------------------------------------------------------
#ifndef SOFTWARE_SPI
// functions for hardware SPI
/** Send a byte to the card */
static void spiSend(uint8_t b) {
  SPDR = b;
    1182:	9e bd       	out	0x2e, r25	; 46
    1184:	0d b4       	in	r0, 0x2d	; 45
  while (!(SPSR & (1 << SPIF)));
    1186:	07 fe       	sbrs	r0, 7
    1188:	fd cf       	rjmp	.-6      	; 0x1184 <_ZN7Sd2Card4initEhh+0x6a>
    118a:	8f 5f       	subi	r24, 0xFF	; 255
  // clear double speed
  SPSR &= ~(1 << SPI2X);
#endif  // SOFTWARE_SPI

  // must supply min of 74 clock cycles with CS high.
  for (uint8_t i = 0; i < 10; i++) spiSend(0XFF);
    118c:	8a 30       	cpi	r24, 0x0A	; 10
    118e:	c9 f7       	brne	.-14     	; 0x1182 <_ZN7Sd2Card4initEhh+0x68>
    1190:	ce 01       	movw	r24, r28

  chipSelectLow();
    1192:	e3 dd       	rcall	.-1082   	; 0xd5a <_ZN7Sd2Card13chipSelectLowEv>
    1194:	09 c0       	rjmp	.+18     	; 0x11a8 <_ZN7Sd2Card4initEhh+0x8e>
    1196:	0e 94 a0 1d 	call	0x3b40	; 0x3b40 <millis>

  // command to go idle in SPI mode
  while ((status_ = cardCommand(CMD0, 0)) != R1_IDLE_STATE) {
    if (((uint16_t)millis() - t0) > SD_INIT_TIMEOUT) {
    119a:	6c 19       	sub	r22, r12
    119c:	7d 09       	sbc	r23, r13
    119e:	61 5d       	subi	r22, 0xD1	; 209
    11a0:	77 40       	sbci	r23, 0x07	; 7
    11a2:	10 f0       	brcs	.+4      	; 0x11a8 <_ZN7Sd2Card4initEhh+0x8e>
    11a4:	81 e0       	ldi	r24, 0x01	; 1
    11a6:	59 c0       	rjmp	.+178    	; 0x125a <_ZN7Sd2Card4initEhh+0x140>
    11a8:	ce 01       	movw	r24, r28
    11aa:	60 e0       	ldi	r22, 0x00	; 0
  for (uint8_t i = 0; i < 10; i++) spiSend(0XFF);

  chipSelectLow();

  // command to go idle in SPI mode
  while ((status_ = cardCommand(CMD0, 0)) != R1_IDLE_STATE) {
    11ac:	20 e0       	ldi	r18, 0x00	; 0
    11ae:	30 e0       	ldi	r19, 0x00	; 0
    11b0:	40 e0       	ldi	r20, 0x00	; 0
    11b2:	50 e0       	ldi	r21, 0x00	; 0
    11b4:	63 de       	rcall	.-826    	; 0xe7c <_ZN7Sd2Card11cardCommandEhm>
    11b6:	18 2f       	mov	r17, r24
    11b8:	8a 87       	std	Y+10, r24	; 0x0a
    11ba:	81 30       	cpi	r24, 0x01	; 1
    11bc:	61 f7       	brne	.-40     	; 0x1196 <_ZN7Sd2Card4initEhh+0x7c>
    11be:	ce 01       	movw	r24, r28
    11c0:	68 e0       	ldi	r22, 0x08	; 8
    11c2:	2a ea       	ldi	r18, 0xAA	; 170
      error(SD_CARD_ERROR_CMD0);
      goto fail;
    }
  }
  // check SD version
  if ((cardCommand(CMD8, 0x1AA) & R1_ILLEGAL_COMMAND)) {
    11c4:	31 e0       	ldi	r19, 0x01	; 1
    11c6:	40 e0       	ldi	r20, 0x00	; 0
    11c8:	50 e0       	ldi	r21, 0x00	; 0
    11ca:	58 de       	rcall	.-848    	; 0xe7c <_ZN7Sd2Card11cardCommandEhm>
    11cc:	82 ff       	sbrs	r24, 2
    11ce:	02 c0       	rjmp	.+4      	; 0x11d4 <_ZN7Sd2Card4initEhh+0xba>
    11d0:	1b 87       	std	Y+11, r17	; 0x0b
    11d2:	11 c0       	rjmp	.+34     	; 0x11f6 <_ZN7Sd2Card4initEhh+0xdc>
    11d4:	80 e0       	ldi	r24, 0x00	; 0
    11d6:	2f ef       	ldi	r18, 0xFF	; 255
    11d8:	2e bd       	out	0x2e, r18	; 46
    11da:	0d b4       	in	r0, 0x2d	; 45
    11dc:	07 fe       	sbrs	r0, 7
//------------------------------------------------------------------------------
#ifndef SOFTWARE_SPI
// functions for hardware SPI
/** Send a byte to the card */
static void spiSend(uint8_t b) {
  SPDR = b;
    11de:	fd cf       	rjmp	.-6      	; 0x11da <_ZN7Sd2Card4initEhh+0xc0>
    11e0:	9e b5       	in	r25, 0x2e	; 46
  while (!(SPSR & (1 << SPIF)));
    11e2:	8f 5f       	subi	r24, 0xFF	; 255
    11e4:	84 30       	cpi	r24, 0x04	; 4
    11e6:	c1 f7       	brne	.-16     	; 0x11d8 <_ZN7Sd2Card4initEhh+0xbe>
}
/** Receive a byte from the card */
static  uint8_t spiRec(void) {
  spiSend(0XFF);
  return SPDR;
    11e8:	9a 87       	std	Y+10, r25	; 0x0a
  // check SD version
  if ((cardCommand(CMD8, 0x1AA) & R1_ILLEGAL_COMMAND)) {
    type(SD_CARD_TYPE_SD1);
  } else {
    // only need last byte of r7 response
    for (uint8_t i = 0; i < 4; i++) status_ = spiRec();
    11ea:	9a 3a       	cpi	r25, 0xAA	; 170
    11ec:	11 f0       	breq	.+4      	; 0x11f2 <_ZN7Sd2Card4initEhh+0xd8>
    11ee:	82 e0       	ldi	r24, 0x02	; 2
    11f0:	34 c0       	rjmp	.+104    	; 0x125a <_ZN7Sd2Card4initEhh+0x140>
    11f2:	82 e0       	ldi	r24, 0x02	; 2
    11f4:	8b 87       	std	Y+11, r24	; 0x0b
    11f6:	8b 85       	ldd	r24, Y+11	; 0x0b
    11f8:	82 30       	cpi	r24, 0x02	; 2
    11fa:	21 f0       	breq	.+8      	; 0x1204 <_ZN7Sd2Card4initEhh+0xea>
    11fc:	ee 24       	eor	r14, r14
      goto fail;
    }
    type(SD_CARD_TYPE_SD2);
  }
  // initialize card and send host supports SDHC if SD2
  arg = type() == SD_CARD_TYPE_SD2 ? 0X40000000 : 0;
    11fe:	ff 24       	eor	r15, r15
    1200:	87 01       	movw	r16, r14
    1202:	0f c0       	rjmp	.+30     	; 0x1222 <_ZN7Sd2Card4initEhh+0x108>
    1204:	e1 2c       	mov	r14, r1
    1206:	f1 2c       	mov	r15, r1
    1208:	01 2d       	mov	r16, r1
    120a:	f0 e4       	ldi	r31, 0x40	; 64
    120c:	1f 2f       	mov	r17, r31
    120e:	09 c0       	rjmp	.+18     	; 0x1222 <_ZN7Sd2Card4initEhh+0x108>
    1210:	0e 94 a0 1d 	call	0x3b40	; 0x3b40 <millis>
    1214:	6c 19       	sub	r22, r12
    1216:	7d 09       	sbc	r23, r13

  while ((status_ = cardAcmd(ACMD41, arg)) != R1_READY_STATE) {
    // check for timeout
    if (((uint16_t)millis() - t0) > SD_INIT_TIMEOUT) {
    1218:	61 5d       	subi	r22, 0xD1	; 209
    121a:	77 40       	sbci	r23, 0x07	; 7
    121c:	10 f0       	brcs	.+4      	; 0x1222 <_ZN7Sd2Card4initEhh+0x108>
    121e:	88 e0       	ldi	r24, 0x08	; 8
    1220:	1c c0       	rjmp	.+56     	; 0x125a <_ZN7Sd2Card4initEhh+0x140>
    1222:	ce 01       	movw	r24, r28
    1224:	67 e3       	ldi	r22, 0x37	; 55
    1226:	20 e0       	ldi	r18, 0x00	; 0
    1228:	30 e0       	ldi	r19, 0x00	; 0
  uint8_t partialBlockRead_;
  uint8_t status_;
  uint8_t type_;
  // private functions
  uint8_t cardAcmd(uint8_t cmd, uint32_t arg) {
    cardCommand(CMD55, 0);
    122a:	40 e0       	ldi	r20, 0x00	; 0
    122c:	50 e0       	ldi	r21, 0x00	; 0
    122e:	26 de       	rcall	.-948    	; 0xe7c <_ZN7Sd2Card11cardCommandEhm>
    1230:	ce 01       	movw	r24, r28
    1232:	69 e2       	ldi	r22, 0x29	; 41
    1234:	a8 01       	movw	r20, r16
    1236:	97 01       	movw	r18, r14
    1238:	21 de       	rcall	.-958    	; 0xe7c <_ZN7Sd2Card11cardCommandEhm>
    123a:	8a 87       	std	Y+10, r24	; 0x0a
    123c:	88 23       	and	r24, r24
    123e:	41 f7       	brne	.-48     	; 0x1210 <_ZN7Sd2Card4initEhh+0xf6>
    1240:	8b 85       	ldd	r24, Y+11	; 0x0b
    1242:	82 30       	cpi	r24, 0x02	; 2
    1244:	21 f5       	brne	.+72     	; 0x128e <_ZN7Sd2Card4initEhh+0x174>
    type(SD_CARD_TYPE_SD2);
  }
  // initialize card and send host supports SDHC if SD2
  arg = type() == SD_CARD_TYPE_SD2 ? 0X40000000 : 0;

  while ((status_ = cardAcmd(ACMD41, arg)) != R1_READY_STATE) {
    1246:	ce 01       	movw	r24, r28
    1248:	6a e3       	ldi	r22, 0x3A	; 58
    124a:	20 e0       	ldi	r18, 0x00	; 0
      error(SD_CARD_ERROR_ACMD41);
      goto fail;
    }
  }
  // if SD2 read OCR register to check for SDHC card
  if (type() == SD_CARD_TYPE_SD2) {
    124c:	30 e0       	ldi	r19, 0x00	; 0
    124e:	40 e0       	ldi	r20, 0x00	; 0
    1250:	50 e0       	ldi	r21, 0x00	; 0
    if (cardCommand(CMD58, 0)) {
    1252:	14 de       	rcall	.-984    	; 0xe7c <_ZN7Sd2Card11cardCommandEhm>
    1254:	88 23       	and	r24, r24
    1256:	31 f0       	breq	.+12     	; 0x1264 <_ZN7Sd2Card4initEhh+0x14a>
    1258:	86 e0       	ldi	r24, 0x06	; 6
    125a:	8d 83       	std	Y+5, r24	; 0x05
    125c:	ce 01       	movw	r24, r28
    125e:	82 dd       	rcall	.-1276   	; 0xd64 <_ZN7Sd2Card14chipSelectHighEv>
    1260:	80 e0       	ldi	r24, 0x00	; 0
    1262:	1a c0       	rjmp	.+52     	; 0x1298 <_ZN7Sd2Card4initEhh+0x17e>
    1264:	8f ef       	ldi	r24, 0xFF	; 255
    1266:	8e bd       	out	0x2e, r24	; 46
    1268:	0d b4       	in	r0, 0x2d	; 45
#else  // SOFTWARE_SPI
  return true;
#endif  // SOFTWARE_SPI

 fail:
  chipSelectHigh();
    126a:	07 fe       	sbrs	r0, 7
    126c:	fd cf       	rjmp	.-6      	; 0x1268 <_ZN7Sd2Card4initEhh+0x14e>
    126e:	8e b5       	in	r24, 0x2e	; 46
    1270:	80 7c       	andi	r24, 0xC0	; 192
    1272:	80 3c       	cpi	r24, 0xC0	; 192
//------------------------------------------------------------------------------
#ifndef SOFTWARE_SPI
// functions for hardware SPI
/** Send a byte to the card */
static void spiSend(uint8_t b) {
  SPDR = b;
    1274:	11 f4       	brne	.+4      	; 0x127a <_ZN7Sd2Card4initEhh+0x160>
    1276:	83 e0       	ldi	r24, 0x03	; 3
  while (!(SPSR & (1 << SPIF)));
    1278:	8b 87       	std	Y+11, r24	; 0x0b
    127a:	80 e0       	ldi	r24, 0x00	; 0
    127c:	9f ef       	ldi	r25, 0xFF	; 255
}
/** Receive a byte from the card */
static  uint8_t spiRec(void) {
  spiSend(0XFF);
  return SPDR;
    127e:	9e bd       	out	0x2e, r25	; 46
    1280:	0d b4       	in	r0, 0x2d	; 45
    1282:	07 fe       	sbrs	r0, 7
    1284:	fd cf       	rjmp	.-6      	; 0x1280 <_ZN7Sd2Card4initEhh+0x166>
    1286:	2e b5       	in	r18, 0x2e	; 46
    1288:	8f 5f       	subi	r24, 0xFF	; 255
    128a:	83 30       	cpi	r24, 0x03	; 3
//------------------------------------------------------------------------------
#ifndef SOFTWARE_SPI
// functions for hardware SPI
/** Send a byte to the card */
static void spiSend(uint8_t b) {
  SPDR = b;
    128c:	c1 f7       	brne	.-16     	; 0x127e <_ZN7Sd2Card4initEhh+0x164>
    128e:	ce 01       	movw	r24, r28
  while (!(SPSR & (1 << SPIF)));
    1290:	69 dd       	rcall	.-1326   	; 0xd64 <_ZN7Sd2Card14chipSelectHighEv>
    1292:	ce 01       	movw	r24, r28
    1294:	6b 2d       	mov	r22, r11
}
/** Receive a byte from the card */
static  uint8_t spiRec(void) {
  spiSend(0XFF);
  return SPDR;
    1296:	1a dd       	rcall	.-1484   	; 0xccc <_ZN7Sd2Card10setSckRateEh>
      error(SD_CARD_ERROR_CMD58);
      goto fail;
    }
    if ((spiRec() & 0XC0) == 0XC0) type(SD_CARD_TYPE_SDHC);
    // discard rest of ocr - contains allowed voltage range
    for (uint8_t i = 0; i < 3; i++) spiRec();
    1298:	df 91       	pop	r29
    129a:	cf 91       	pop	r28
    129c:	1f 91       	pop	r17
  }
  chipSelectHigh();
    129e:	0f 91       	pop	r16
    12a0:	ff 90       	pop	r15
    12a2:	ef 90       	pop	r14

#ifndef SOFTWARE_SPI
  return setSckRate(sckRateID);
    12a4:	df 90       	pop	r13
    12a6:	cf 90       	pop	r12
    12a8:	bf 90       	pop	r11
    12aa:	08 95       	ret

000012ac <_ZN6SdFile10make83NameEPKcPh>:
    }
  }
}
//------------------------------------------------------------------------------
// format directory name field from a 8.3 name string
uint8_t SdFile::make83Name(const char* str, uint8_t* name) {
    12ac:	cf 93       	push	r28
    12ae:	df 93       	push	r29
    12b0:	ec 01       	movw	r28, r24
    12b2:	db 01       	movw	r26, r22
    12b4:	80 e0       	ldi	r24, 0x00	; 0
    12b6:	90 e0       	ldi	r25, 0x00	; 0
  uint8_t c;
  uint8_t n = 7;  // max index for part before dot
  uint8_t i = 0;
  // blank fill name and extension
  while (i < 11) name[i++] = ' ';
    12b8:	20 e2       	ldi	r18, 0x20	; 32
    12ba:	fd 01       	movw	r30, r26
    12bc:	e8 0f       	add	r30, r24
    12be:	f9 1f       	adc	r31, r25
    12c0:	20 83       	st	Z, r18
    12c2:	01 96       	adiw	r24, 0x01	; 1
    12c4:	8b 30       	cpi	r24, 0x0B	; 11
    12c6:	91 05       	cpc	r25, r1
    12c8:	c1 f7       	brne	.-16     	; 0x12ba <_ZN6SdFile10make83NameEPKcPh+0xe>
    12ca:	57 e0       	ldi	r21, 0x07	; 7
    12cc:	40 e0       	ldi	r20, 0x00	; 0
    12ce:	21 c0       	rjmp	.+66     	; 0x1312 <_ZN6SdFile10make83NameEPKcPh+0x66>
  i = 0;
  while ((c = *str++) != '\0') {
    if (c == '.') {
    12d0:	2e 32       	cpi	r18, 0x2E	; 46
    12d2:	19 f0       	breq	.+6      	; 0x12da <_ZN6SdFile10make83NameEPKcPh+0x2e>
      if (n == 10) return false;  // only one dot allowed
      n = 10;  // max index for full 8.3 name
      i = 8;   // place for extension
    } else {
      // illegal FAT characters
      PGM_P p = PSTR("|<>^+=?/[];,*\"\\");
    12d4:	88 e6       	ldi	r24, 0x68	; 104
    12d6:	90 e0       	ldi	r25, 0x00	; 0
    12d8:	07 c0       	rjmp	.+14     	; 0x12e8 <_ZN6SdFile10make83NameEPKcPh+0x3c>
  // blank fill name and extension
  while (i < 11) name[i++] = ' ';
  i = 0;
  while ((c = *str++) != '\0') {
    if (c == '.') {
      if (n == 10) return false;  // only one dot allowed
    12da:	5a 30       	cpi	r21, 0x0A	; 10
    12dc:	19 f1       	breq	.+70     	; 0x1324 <_ZN6SdFile10make83NameEPKcPh+0x78>
    12de:	5a e0       	ldi	r21, 0x0A	; 10
    12e0:	48 e0       	ldi	r20, 0x08	; 8
    12e2:	17 c0       	rjmp	.+46     	; 0x1312 <_ZN6SdFile10make83NameEPKcPh+0x66>
      i = 8;   // place for extension
    } else {
      // illegal FAT characters
      PGM_P p = PSTR("|<>^+=?/[];,*\"\\");
      uint8_t b;
      while ((b = pgm_read_byte(p++))) if (b == c) return false;
    12e4:	32 17       	cp	r19, r18
    12e6:	f1 f0       	breq	.+60     	; 0x1324 <_ZN6SdFile10make83NameEPKcPh+0x78>
    12e8:	fc 01       	movw	r30, r24
    12ea:	01 96       	adiw	r24, 0x01	; 1
    12ec:	34 91       	lpm	r19, Z+
    12ee:	33 23       	and	r19, r19
    12f0:	c9 f7       	brne	.-14     	; 0x12e4 <_ZN6SdFile10make83NameEPKcPh+0x38>
      // check size and only allow ASCII printable characters
      if (i > n || c < 0X21 || c > 0X7E)return false;
    12f2:	54 17       	cp	r21, r20
    12f4:	b8 f0       	brcs	.+46     	; 0x1324 <_ZN6SdFile10make83NameEPKcPh+0x78>
    12f6:	21 32       	cpi	r18, 0x21	; 33
    12f8:	a8 f0       	brcs	.+42     	; 0x1324 <_ZN6SdFile10make83NameEPKcPh+0x78>
    12fa:	2f 37       	cpi	r18, 0x7F	; 127
    12fc:	98 f4       	brcc	.+38     	; 0x1324 <_ZN6SdFile10make83NameEPKcPh+0x78>
      // only upper case allowed in 8.3 names - convert lower to upper
      name[i++] = c < 'a' || c > 'z' ?  c : c + ('A' - 'a');
    12fe:	82 2f       	mov	r24, r18
    1300:	81 56       	subi	r24, 0x61	; 97
    1302:	8a 31       	cpi	r24, 0x1A	; 26
    1304:	08 f4       	brcc	.+2      	; 0x1308 <_ZN6SdFile10make83NameEPKcPh+0x5c>
    1306:	20 52       	subi	r18, 0x20	; 32
    1308:	fd 01       	movw	r30, r26
    130a:	e4 0f       	add	r30, r20
    130c:	f1 1d       	adc	r31, r1
    130e:	20 83       	st	Z, r18
    1310:	4f 5f       	subi	r20, 0xFF	; 255
  uint8_t n = 7;  // max index for part before dot
  uint8_t i = 0;
  // blank fill name and extension
  while (i < 11) name[i++] = ' ';
  i = 0;
  while ((c = *str++) != '\0') {
    1312:	29 91       	ld	r18, Y+
    1314:	22 23       	and	r18, r18
    1316:	e1 f6       	brne	.-72     	; 0x12d0 <_ZN6SdFile10make83NameEPKcPh+0x24>
      // only upper case allowed in 8.3 names - convert lower to upper
      name[i++] = c < 'a' || c > 'z' ?  c : c + ('A' - 'a');
    }
  }
  // must have a file name, extension is optional
  return name[0] != ' ';
    1318:	90 e0       	ldi	r25, 0x00	; 0
    131a:	8c 91       	ld	r24, X
    131c:	80 32       	cpi	r24, 0x20	; 32
    131e:	19 f0       	breq	.+6      	; 0x1326 <_ZN6SdFile10make83NameEPKcPh+0x7a>
    1320:	91 e0       	ldi	r25, 0x01	; 1
    1322:	01 c0       	rjmp	.+2      	; 0x1326 <_ZN6SdFile10make83NameEPKcPh+0x7a>
    1324:	90 e0       	ldi	r25, 0x00	; 0
}
    1326:	89 2f       	mov	r24, r25
    1328:	df 91       	pop	r29
    132a:	cf 91       	pop	r28
    132c:	08 95       	ret

0000132e <_ZN6SdFile7seekSetEm>:
 * \param[in] pos The new position in bytes from the beginning of the file.
 *
 * \return The value one, true, is returned for success and
 * the value zero, false, is returned for failure.
 */
uint8_t SdFile::seekSet(uint32_t pos) {
    132e:	6f 92       	push	r6
    1330:	7f 92       	push	r7
    1332:	8f 92       	push	r8
    1334:	9f 92       	push	r9
    1336:	af 92       	push	r10
    1338:	bf 92       	push	r11
    133a:	cf 92       	push	r12
    133c:	df 92       	push	r13
    133e:	ef 92       	push	r14
    1340:	ff 92       	push	r15
    1342:	0f 93       	push	r16
    1344:	1f 93       	push	r17
    1346:	cf 93       	push	r28
    1348:	df 93       	push	r29
    134a:	ec 01       	movw	r28, r24
    134c:	7a 01       	movw	r14, r20
    134e:	8b 01       	movw	r16, r22
  /** \return True if this is a SdFile for a directory else false. */
  uint8_t isDir(void) const {return type_ >= FAT_FILE_TYPE_MIN_DIR;}
  /** \return True if this is a SdFile for a file else false. */
  uint8_t isFile(void) const {return type_ == FAT_FILE_TYPE_NORMAL;}
  /** \return True if this is a SdFile for an open file/directory else false. */
  uint8_t isOpen(void) const {return type_ != FAT_FILE_TYPE_CLOSED;}
    1350:	2d 81       	ldd	r18, Y+5	; 0x05
  // error if file not open or seek past end of file
  if (!isOpen() || pos > fileSize_) return false;
    1352:	22 23       	and	r18, r18
    1354:	09 f4       	brne	.+2      	; 0x1358 <_ZN6SdFile7seekSetEm+0x2a>
    1356:	80 c0       	rjmp	.+256    	; 0x1458 <_ZN6SdFile7seekSetEm+0x12a>
    1358:	8b 89       	ldd	r24, Y+19	; 0x13
    135a:	9c 89       	ldd	r25, Y+20	; 0x14
    135c:	ad 89       	ldd	r26, Y+21	; 0x15
    135e:	be 89       	ldd	r27, Y+22	; 0x16
    1360:	84 17       	cp	r24, r20
    1362:	95 07       	cpc	r25, r21
    1364:	a6 07       	cpc	r26, r22
    1366:	b7 07       	cpc	r27, r23
    1368:	08 f4       	brcc	.+2      	; 0x136c <_ZN6SdFile7seekSetEm+0x3e>
    136a:	76 c0       	rjmp	.+236    	; 0x1458 <_ZN6SdFile7seekSetEm+0x12a>
    136c:	85 c0       	rjmp	.+266    	; 0x1478 <_ZN6SdFile7seekSetEm+0x14a>

  if (type_ == FAT_FILE_TYPE_ROOT16) {
    curPosition_ = pos;
    return true;
  }
  if (pos == 0) {
    136e:	e1 14       	cp	r14, r1
    1370:	f1 04       	cpc	r15, r1
    1372:	01 05       	cpc	r16, r1
    1374:	11 05       	cpc	r17, r1
    1376:	49 f4       	brne	.+18     	; 0x138a <_ZN6SdFile7seekSetEm+0x5c>
    // set position to start of file
    curCluster_ = 0;
    1378:	1e 82       	std	Y+6, r1	; 0x06
    137a:	1f 82       	std	Y+7, r1	; 0x07
    137c:	18 86       	std	Y+8, r1	; 0x08
    137e:	19 86       	std	Y+9, r1	; 0x09
    curPosition_ = 0;
    1380:	1a 86       	std	Y+10, r1	; 0x0a
    1382:	1b 86       	std	Y+11, r1	; 0x0b
    1384:	1c 86       	std	Y+12, r1	; 0x0c
    1386:	1d 86       	std	Y+13, r1	; 0x0d
    1388:	65 c0       	rjmp	.+202    	; 0x1454 <_ZN6SdFile7seekSetEm+0x126>
    return true;
  }
  // calculate cluster index for cur and new position
  uint32_t nCur = (curPosition_ - 1) >> (vol_->clusterSizeShift_ + 9);
    138a:	2a 85       	ldd	r18, Y+10	; 0x0a
    138c:	3b 85       	ldd	r19, Y+11	; 0x0b
    138e:	4c 85       	ldd	r20, Y+12	; 0x0c
    1390:	5d 85       	ldd	r21, Y+13	; 0x0d
    1392:	eb 8d       	ldd	r30, Y+27	; 0x1b
    1394:	fc 8d       	ldd	r31, Y+28	; 0x1c
    1396:	85 85       	ldd	r24, Z+13	; 0x0d
    1398:	90 e0       	ldi	r25, 0x00	; 0
    139a:	09 96       	adiw	r24, 0x09	; 9
    139c:	21 50       	subi	r18, 0x01	; 1
    139e:	30 40       	sbci	r19, 0x00	; 0
    13a0:	40 40       	sbci	r20, 0x00	; 0
    13a2:	50 40       	sbci	r21, 0x00	; 0
    13a4:	39 01       	movw	r6, r18
    13a6:	4a 01       	movw	r8, r20
    13a8:	08 2e       	mov	r0, r24
    13aa:	04 c0       	rjmp	.+8      	; 0x13b4 <_ZN6SdFile7seekSetEm+0x86>
    13ac:	96 94       	lsr	r9
    13ae:	87 94       	ror	r8
    13b0:	77 94       	ror	r7
    13b2:	67 94       	ror	r6
    13b4:	0a 94       	dec	r0
    13b6:	d2 f7       	brpl	.-12     	; 0x13ac <_ZN6SdFile7seekSetEm+0x7e>
    13b8:	2f 5f       	subi	r18, 0xFF	; 255
    13ba:	3f 4f       	sbci	r19, 0xFF	; 255
    13bc:	4f 4f       	sbci	r20, 0xFF	; 255
    13be:	5f 4f       	sbci	r21, 0xFF	; 255
  uint32_t nNew = (pos - 1) >> (vol_->clusterSizeShift_ + 9);
    13c0:	08 94       	sec
    13c2:	e1 08       	sbc	r14, r1
    13c4:	f1 08       	sbc	r15, r1
    13c6:	01 09       	sbc	r16, r1
    13c8:	11 09       	sbc	r17, r1
    13ca:	57 01       	movw	r10, r14
    13cc:	68 01       	movw	r12, r16
    13ce:	04 c0       	rjmp	.+8      	; 0x13d8 <_ZN6SdFile7seekSetEm+0xaa>
    13d0:	d6 94       	lsr	r13
    13d2:	c7 94       	ror	r12
    13d4:	b7 94       	ror	r11
    13d6:	a7 94       	ror	r10
    13d8:	8a 95       	dec	r24
    13da:	d2 f7       	brpl	.-12     	; 0x13d0 <_ZN6SdFile7seekSetEm+0xa2>
    13dc:	08 94       	sec
    13de:	e1 1c       	adc	r14, r1
    13e0:	f1 1c       	adc	r15, r1
    13e2:	01 1d       	adc	r16, r1
    13e4:	11 1d       	adc	r17, r1

  if (nNew < nCur || curPosition_ == 0) {
    13e6:	a6 14       	cp	r10, r6
    13e8:	b7 04       	cpc	r11, r7
    13ea:	c8 04       	cpc	r12, r8
    13ec:	d9 04       	cpc	r13, r9
    13ee:	28 f0       	brcs	.+10     	; 0x13fa <_ZN6SdFile7seekSetEm+0xcc>
    13f0:	21 15       	cp	r18, r1
    13f2:	31 05       	cpc	r19, r1
    13f4:	41 05       	cpc	r20, r1
    13f6:	51 05       	cpc	r21, r1
    13f8:	49 f4       	brne	.+18     	; 0x140c <_ZN6SdFile7seekSetEm+0xde>
    // must follow chain from first cluster
    curCluster_ = firstCluster_;
    13fa:	8f 89       	ldd	r24, Y+23	; 0x17
    13fc:	98 8d       	ldd	r25, Y+24	; 0x18
    13fe:	a9 8d       	ldd	r26, Y+25	; 0x19
    1400:	ba 8d       	ldd	r27, Y+26	; 0x1a
    1402:	8e 83       	std	Y+6, r24	; 0x06
    1404:	9f 83       	std	Y+7, r25	; 0x07
    1406:	a8 87       	std	Y+8, r26	; 0x08
    1408:	b9 87       	std	Y+9, r27	; 0x09
    140a:	16 c0       	rjmp	.+44     	; 0x1438 <_ZN6SdFile7seekSetEm+0x10a>
  } else {
    // advance from curPosition
    nNew -= nCur;
    140c:	a6 18       	sub	r10, r6
    140e:	b7 08       	sbc	r11, r7
    1410:	c8 08       	sbc	r12, r8
    1412:	d9 08       	sbc	r13, r9
    1414:	11 c0       	rjmp	.+34     	; 0x1438 <_ZN6SdFile7seekSetEm+0x10a>
  }
  while (nNew--) {
    if (!vol_->fatGet(curCluster_, &curCluster_)) return false;
    1416:	4e 81       	ldd	r20, Y+6	; 0x06
    1418:	5f 81       	ldd	r21, Y+7	; 0x07
    141a:	68 85       	ldd	r22, Y+8	; 0x08
    141c:	79 85       	ldd	r23, Y+9	; 0x09
    141e:	8b 8d       	ldd	r24, Y+27	; 0x1b
    1420:	9c 8d       	ldd	r25, Y+28	; 0x1c
    1422:	94 01       	movw	r18, r8
    1424:	0e 94 4d 13 	call	0x269a	; 0x269a <_ZNK8SdVolume6fatGetEmPm>
    1428:	08 94       	sec
    142a:	a1 08       	sbc	r10, r1
    142c:	b1 08       	sbc	r11, r1
    142e:	c1 08       	sbc	r12, r1
    1430:	d1 08       	sbc	r13, r1
    1432:	88 23       	and	r24, r24
    1434:	31 f4       	brne	.+12     	; 0x1442 <_ZN6SdFile7seekSetEm+0x114>
    1436:	10 c0       	rjmp	.+32     	; 0x1458 <_ZN6SdFile7seekSetEm+0x12a>
    1438:	86 e0       	ldi	r24, 0x06	; 6
    143a:	88 2e       	mov	r8, r24
    143c:	91 2c       	mov	r9, r1
    143e:	8c 0e       	add	r8, r28
    1440:	9d 1e       	adc	r9, r29
    curCluster_ = firstCluster_;
  } else {
    // advance from curPosition
    nNew -= nCur;
  }
  while (nNew--) {
    1442:	a1 14       	cp	r10, r1
    1444:	b1 04       	cpc	r11, r1
    1446:	c1 04       	cpc	r12, r1
    1448:	d1 04       	cpc	r13, r1
    144a:	29 f7       	brne	.-54     	; 0x1416 <_ZN6SdFile7seekSetEm+0xe8>
    if (!vol_->fatGet(curCluster_, &curCluster_)) return false;
  }
  curPosition_ = pos;
    144c:	ea 86       	std	Y+10, r14	; 0x0a
    144e:	fb 86       	std	Y+11, r15	; 0x0b
    1450:	0c 87       	std	Y+12, r16	; 0x0c
    1452:	1d 87       	std	Y+13, r17	; 0x0d
    1454:	81 e0       	ldi	r24, 0x01	; 1
    1456:	01 c0       	rjmp	.+2      	; 0x145a <_ZN6SdFile7seekSetEm+0x12c>
  return true;
    1458:	80 e0       	ldi	r24, 0x00	; 0
}
    145a:	df 91       	pop	r29
    145c:	cf 91       	pop	r28
    145e:	1f 91       	pop	r17
    1460:	0f 91       	pop	r16
    1462:	ff 90       	pop	r15
    1464:	ef 90       	pop	r14
    1466:	df 90       	pop	r13
    1468:	cf 90       	pop	r12
    146a:	bf 90       	pop	r11
    146c:	af 90       	pop	r10
    146e:	9f 90       	pop	r9
    1470:	8f 90       	pop	r8
    1472:	7f 90       	pop	r7
    1474:	6f 90       	pop	r6
    1476:	08 95       	ret
 */
uint8_t SdFile::seekSet(uint32_t pos) {
  // error if file not open or seek past end of file
  if (!isOpen() || pos > fileSize_) return false;

  if (type_ == FAT_FILE_TYPE_ROOT16) {
    1478:	22 30       	cpi	r18, 0x02	; 2
    147a:	09 f0       	breq	.+2      	; 0x147e <_ZN6SdFile7seekSetEm+0x150>
    147c:	78 cf       	rjmp	.-272    	; 0x136e <_ZN6SdFile7seekSetEm+0x40>
    147e:	e6 cf       	rjmp	.-52     	; 0x144c <_ZN6SdFile7seekSetEm+0x11e>

00001480 <_ZN6SdFile13cacheDirEntryEh>:
  return true;
}
//------------------------------------------------------------------------------
// cache a file's directory entry
// return pointer to cached entry or null for failure
dir_t* SdFile::cacheDirEntry(uint8_t action) {
    1480:	cf 93       	push	r28
    1482:	df 93       	push	r29
    1484:	ec 01       	movw	r28, r24
    1486:	46 2f       	mov	r20, r22
  if (!SdVolume::cacheRawBlock(dirBlock_, action)) return NULL;
    1488:	6e 85       	ldd	r22, Y+14	; 0x0e
    148a:	7f 85       	ldd	r23, Y+15	; 0x0f
    148c:	88 89       	ldd	r24, Y+16	; 0x10
    148e:	99 89       	ldd	r25, Y+17	; 0x11
    1490:	ec d6       	rcall	.+3544   	; 0x226a <_ZN8SdVolume13cacheRawBlockEmh>
    1492:	88 23       	and	r24, r24
    1494:	19 f4       	brne	.+6      	; 0x149c <_ZN6SdFile13cacheDirEntryEh+0x1c>
    1496:	20 e0       	ldi	r18, 0x00	; 0
    1498:	30 e0       	ldi	r19, 0x00	; 0
    149a:	0a c0       	rjmp	.+20     	; 0x14b0 <_ZN6SdFile13cacheDirEntryEh+0x30>
    149c:	8a 89       	ldd	r24, Y+18	; 0x12
  return SdVolume::cacheBuffer_.dir + dirIndex_;
    149e:	28 2f       	mov	r18, r24
    14a0:	30 e0       	ldi	r19, 0x00	; 0
    14a2:	95 e0       	ldi	r25, 0x05	; 5
    14a4:	22 0f       	add	r18, r18
    14a6:	33 1f       	adc	r19, r19
    14a8:	9a 95       	dec	r25
    14aa:	e1 f7       	brne	.-8      	; 0x14a4 <_ZN6SdFile13cacheDirEntryEh+0x24>
    14ac:	26 58       	subi	r18, 0x86	; 134
    14ae:	3c 4f       	sbci	r19, 0xFC	; 252
    14b0:	c9 01       	movw	r24, r18
}
    14b2:	df 91       	pop	r29
    14b4:	cf 91       	pop	r28
    14b6:	08 95       	ret

000014b8 <_ZN6SdFile4syncEv>:
 * \return The value one, true, is returned for success and
 * the value zero, false, is returned for failure.
 * Reasons for failure include a call to sync() before a file has been
 * opened or an I/O error.
 */
uint8_t SdFile::sync(void) {
    14b8:	0f 93       	push	r16
    14ba:	1f 93       	push	r17
    14bc:	cf 93       	push	r28
    14be:	df 93       	push	r29
    14c0:	8c 01       	movw	r16, r24
  // only allow open files and directories
  if (!isOpen()) return false;
    14c2:	fc 01       	movw	r30, r24
    14c4:	85 81       	ldd	r24, Z+5	; 0x05
    14c6:	88 23       	and	r24, r24
    14c8:	c9 f1       	breq	.+114    	; 0x153c <_ZN6SdFile4syncEv+0x84>

  if (flags_ & F_FILE_DIR_DIRTY) {
    14ca:	84 81       	ldd	r24, Z+4	; 0x04
    14cc:	87 ff       	sbrs	r24, 7
    14ce:	34 c0       	rjmp	.+104    	; 0x1538 <_ZN6SdFile4syncEv+0x80>
    dir_t* d = cacheDirEntry(SdVolume::CACHE_FOR_WRITE);
    14d0:	c8 01       	movw	r24, r16
    14d2:	61 e0       	ldi	r22, 0x01	; 1
    14d4:	d5 df       	rcall	.-86     	; 0x1480 <_ZN6SdFile13cacheDirEntryEh>
    14d6:	ec 01       	movw	r28, r24
    14d8:	00 97       	sbiw	r24, 0x00	; 0
    if (!d) return false;
    14da:	81 f1       	breq	.+96     	; 0x153c <_ZN6SdFile4syncEv+0x84>
    14dc:	f8 01       	movw	r30, r16

    // do not set filesize for dir files
    if (!isDir()) d->fileSize = fileSize_;
    14de:	85 81       	ldd	r24, Z+5	; 0x05
    14e0:	82 30       	cpi	r24, 0x02	; 2
    14e2:	40 f4       	brcc	.+16     	; 0x14f4 <_ZN6SdFile4syncEv+0x3c>
    14e4:	83 89       	ldd	r24, Z+19	; 0x13
    14e6:	94 89       	ldd	r25, Z+20	; 0x14
    14e8:	a5 89       	ldd	r26, Z+21	; 0x15
    14ea:	b6 89       	ldd	r27, Z+22	; 0x16
    14ec:	8c 8f       	std	Y+28, r24	; 0x1c
    14ee:	9d 8f       	std	Y+29, r25	; 0x1d
    14f0:	ae 8f       	std	Y+30, r26	; 0x1e
    14f2:	bf 8f       	std	Y+31, r27	; 0x1f
    14f4:	f8 01       	movw	r30, r16

    // update first cluster fields
    d->firstClusterLow = firstCluster_ & 0XFFFF;
    14f6:	87 89       	ldd	r24, Z+23	; 0x17
    14f8:	90 8d       	ldd	r25, Z+24	; 0x18
    14fa:	9b 8f       	std	Y+27, r25	; 0x1b
    14fc:	8a 8f       	std	Y+26, r24	; 0x1a
    14fe:	87 89       	ldd	r24, Z+23	; 0x17
    d->firstClusterHigh = firstCluster_ >> 16;
    1500:	90 8d       	ldd	r25, Z+24	; 0x18
    1502:	a1 8d       	ldd	r26, Z+25	; 0x19
    1504:	b2 8d       	ldd	r27, Z+26	; 0x1a
    1506:	cd 01       	movw	r24, r26
    1508:	aa 27       	eor	r26, r26
    150a:	bb 27       	eor	r27, r27
    150c:	9d 8b       	std	Y+21, r25	; 0x15
    150e:	8c 8b       	std	Y+20, r24	; 0x14
    1510:	e0 91 78 03 	lds	r30, 0x0378

    // set modify time if user supplied a callback date/time function
    if (dateTime_) {
    1514:	f0 91 79 03 	lds	r31, 0x0379
    1518:	30 97       	sbiw	r30, 0x00	; 0
    151a:	51 f0       	breq	.+20     	; 0x1530 <_ZN6SdFile4syncEv+0x78>
    151c:	be 01       	movw	r22, r28
      dateTime_(&d->lastWriteDate, &d->lastWriteTime);
    151e:	6a 5e       	subi	r22, 0xEA	; 234
    1520:	7f 4f       	sbci	r23, 0xFF	; 255
    1522:	ce 01       	movw	r24, r28
    1524:	48 96       	adiw	r24, 0x18	; 24
    1526:	09 95       	icall
    1528:	88 8d       	ldd	r24, Y+24	; 0x18
      d->lastAccessDate = d->lastWriteDate;
    152a:	99 8d       	ldd	r25, Y+25	; 0x19
    152c:	9b 8b       	std	Y+19, r25	; 0x13
    152e:	8a 8b       	std	Y+18, r24	; 0x12
    1530:	f8 01       	movw	r30, r16
    }
    // clear directory dirty
    flags_ &= ~F_FILE_DIR_DIRTY;
    1532:	84 81       	ldd	r24, Z+4	; 0x04
    1534:	8f 77       	andi	r24, 0x7F	; 127
    1536:	84 83       	std	Z+4, r24	; 0x04
    1538:	3a d6       	rcall	.+3188   	; 0x21ae <_ZN8SdVolume10cacheFlushEv>
  }
  return SdVolume::cacheFlush();
    153a:	01 c0       	rjmp	.+2      	; 0x153e <_ZN6SdFile4syncEv+0x86>
    153c:	80 e0       	ldi	r24, 0x00	; 0
    153e:	df 91       	pop	r29
    1540:	cf 91       	pop	r28
}
    1542:	1f 91       	pop	r17
    1544:	0f 91       	pop	r16
    1546:	08 95       	ret

00001548 <_ZN6SdFile5closeEv>:
 *
 * \return The value one, true, is returned for success and
 * the value zero, false, is returned for failure.
 * Reasons for failure include no file is open or an I/O error.
 */
uint8_t SdFile::close(void) {
    1548:	cf 93       	push	r28
    154a:	df 93       	push	r29
    154c:	ec 01       	movw	r28, r24
  if (!sync())return false;
    154e:	b4 df       	rcall	.-152    	; 0x14b8 <_ZN6SdFile4syncEv>
    1550:	88 23       	and	r24, r24
    1552:	11 f0       	breq	.+4      	; 0x1558 <_ZN6SdFile5closeEv+0x10>
    1554:	1d 82       	std	Y+5, r1	; 0x05
  type_ = FAT_FILE_TYPE_CLOSED;
    1556:	81 e0       	ldi	r24, 0x01	; 1
    1558:	df 91       	pop	r29
  return true;
}
    155a:	cf 91       	pop	r28
    155c:	08 95       	ret

0000155e <_ZN6SdFile8truncateEm>:
 * \return The value one, true, is returned for success and
 * the value zero, false, is returned for failure.
 * Reasons for failure include file is read only, file is a directory,
 * \a length is greater than the current file size or an I/O error occurs.
 */
uint8_t SdFile::truncate(uint32_t length) {
    155e:	6f 92       	push	r6
    1560:	7f 92       	push	r7
    1562:	8f 92       	push	r8
    1564:	9f 92       	push	r9
    1566:	af 92       	push	r10
    1568:	bf 92       	push	r11
    156a:	cf 92       	push	r12
    156c:	df 92       	push	r13
    156e:	ef 92       	push	r14
    1570:	ff 92       	push	r15
    1572:	0f 93       	push	r16
    1574:	1f 93       	push	r17
    1576:	df 93       	push	r29
    1578:	cf 93       	push	r28
    157a:	00 d0       	rcall	.+0      	; 0x157c <_ZN6SdFile8truncateEm+0x1e>
    157c:	00 d0       	rcall	.+0      	; 0x157e <_ZN6SdFile8truncateEm+0x20>
    157e:	cd b7       	in	r28, 0x3d	; 61
    1580:	de b7       	in	r29, 0x3e	; 62
    1582:	7c 01       	movw	r14, r24
    1584:	5a 01       	movw	r10, r20
    1586:	6b 01       	movw	r12, r22
// error if not a normal file or read-only
  if (!isFile() || !(flags_ & O_WRITE)) return false;
    1588:	dc 01       	movw	r26, r24
    158a:	15 96       	adiw	r26, 0x05	; 5
    158c:	8c 91       	ld	r24, X
    158e:	15 97       	sbiw	r26, 0x05	; 5
    1590:	81 30       	cpi	r24, 0x01	; 1
    1592:	09 f0       	breq	.+2      	; 0x1596 <_ZN6SdFile8truncateEm+0x38>
    1594:	8b c0       	rjmp	.+278    	; 0x16ac <_ZN6SdFile8truncateEm+0x14e>
    1596:	14 96       	adiw	r26, 0x04	; 4
    1598:	8c 91       	ld	r24, X
    159a:	81 ff       	sbrs	r24, 1
    159c:	87 c0       	rjmp	.+270    	; 0x16ac <_ZN6SdFile8truncateEm+0x14e>
    159e:	9a c0       	rjmp	.+308    	; 0x16d4 <_ZN6SdFile8truncateEm+0x176>

  // error if length is greater than current size
  if (length > fileSize_) return false;

  // fileSize and length are zero - nothing to do
  if (fileSize_ == 0) return true;
    15a0:	00 97       	sbiw	r24, 0x00	; 0
    15a2:	a1 05       	cpc	r26, r1
    15a4:	b1 05       	cpc	r27, r1
    15a6:	11 f4       	brne	.+4      	; 0x15ac <_ZN6SdFile8truncateEm+0x4e>
    15a8:	81 e0       	ldi	r24, 0x01	; 1
    15aa:	81 c0       	rjmp	.+258    	; 0x16ae <_ZN6SdFile8truncateEm+0x150>

  // remember position for seek after truncation
  uint32_t newPos = curPosition_ > length ? length : curPosition_;
    15ac:	f7 01       	movw	r30, r14
    15ae:	62 84       	ldd	r6, Z+10	; 0x0a
    15b0:	73 84       	ldd	r7, Z+11	; 0x0b
    15b2:	84 84       	ldd	r8, Z+12	; 0x0c
    15b4:	95 84       	ldd	r9, Z+13	; 0x0d

  // position to last cluster in truncated file
  if (!seekSet(length)) return false;
    15b6:	c7 01       	movw	r24, r14
    15b8:	b6 01       	movw	r22, r12
    15ba:	a5 01       	movw	r20, r10
    15bc:	b8 de       	rcall	.-656    	; 0x132e <_ZN6SdFile7seekSetEm>
    15be:	88 23       	and	r24, r24
    15c0:	09 f4       	brne	.+2      	; 0x15c4 <_ZN6SdFile8truncateEm+0x66>
    15c2:	74 c0       	rjmp	.+232    	; 0x16ac <_ZN6SdFile8truncateEm+0x14e>
    15c4:	d7 01       	movw	r26, r14
    15c6:	5b 96       	adiw	r26, 0x1b	; 27
    15c8:	8d 91       	ld	r24, X+
    15ca:	9c 91       	ld	r25, X
    15cc:	5c 97       	sbiw	r26, 0x1c	; 28
    15ce:	a1 14       	cp	r10, r1

  if (length == 0) {
    15d0:	b1 04       	cpc	r11, r1
    15d2:	c1 04       	cpc	r12, r1
    15d4:	d1 04       	cpc	r13, r1
    15d6:	89 f4       	brne	.+34     	; 0x15fa <_ZN6SdFile8truncateEm+0x9c>
    15d8:	57 96       	adiw	r26, 0x17	; 23
    // free all clusters
    if (!vol_->freeChain(firstCluster_)) return false;
    15da:	4d 91       	ld	r20, X+
    15dc:	5d 91       	ld	r21, X+
    15de:	6d 91       	ld	r22, X+
    15e0:	7c 91       	ld	r23, X
    15e2:	5a 97       	sbiw	r26, 0x1a	; 26
    15e4:	0e 94 bf 13 	call	0x277e	; 0x277e <_ZN8SdVolume9freeChainEm>
    15e8:	88 23       	and	r24, r24
    15ea:	09 f4       	brne	.+2      	; 0x15ee <_ZN6SdFile8truncateEm+0x90>
    15ec:	5f c0       	rjmp	.+190    	; 0x16ac <_ZN6SdFile8truncateEm+0x14e>
    15ee:	f7 01       	movw	r30, r14
    firstCluster_ = 0;
    15f0:	17 8a       	std	Z+23, r1	; 0x17
    15f2:	10 8e       	std	Z+24, r1	; 0x18
    15f4:	11 8e       	std	Z+25, r1	; 0x19
    15f6:	12 8e       	std	Z+26, r1	; 0x1a
    15f8:	3c c0       	rjmp	.+120    	; 0x1672 <_ZN6SdFile8truncateEm+0x114>
    15fa:	d7 01       	movw	r26, r14
  } else {
    uint32_t toFree;
    if (!vol_->fatGet(curCluster_, &toFree)) return false;
    15fc:	16 96       	adiw	r26, 0x06	; 6
    15fe:	4d 91       	ld	r20, X+
    1600:	5d 91       	ld	r21, X+
    1602:	6d 91       	ld	r22, X+
    1604:	7c 91       	ld	r23, X
    1606:	19 97       	sbiw	r26, 0x09	; 9
    1608:	9e 01       	movw	r18, r28
    160a:	2f 5f       	subi	r18, 0xFF	; 255
    160c:	3f 4f       	sbci	r19, 0xFF	; 255
    160e:	0e 94 4d 13 	call	0x269a	; 0x269a <_ZNK8SdVolume6fatGetEmPm>
    1612:	88 23       	and	r24, r24
    1614:	09 f4       	brne	.+2      	; 0x1618 <_ZN6SdFile8truncateEm+0xba>
    1616:	4a c0       	rjmp	.+148    	; 0x16ac <_ZN6SdFile8truncateEm+0x14e>
    1618:	d7 01       	movw	r26, r14

    if (!vol_->isEOC(toFree)) {
    161a:	5b 96       	adiw	r26, 0x1b	; 27
    161c:	ed 91       	ld	r30, X+
    161e:	fc 91       	ld	r31, X
    1620:	5c 97       	sbiw	r26, 0x1c	; 28
    1622:	49 81       	ldd	r20, Y+1	; 0x01
    1624:	5a 81       	ldd	r21, Y+2	; 0x02
    1626:	6b 81       	ldd	r22, Y+3	; 0x03
    1628:	7c 81       	ldd	r23, Y+4	; 0x04
    162a:	87 89       	ldd	r24, Z+23	; 0x17
  uint8_t fatPutEOC(uint32_t cluster) {
    return fatPut(cluster, 0x0FFFFFFF);
  }
  uint8_t freeChain(uint32_t cluster);
  uint8_t isEOC(uint32_t cluster) const {
    return  cluster >= (fatType_ == 16 ? FAT16EOC_MIN : FAT32EOC_MIN);
    162c:	80 31       	cpi	r24, 0x10	; 16
    162e:	29 f0       	breq	.+10     	; 0x163a <_ZN6SdFile8truncateEm+0xdc>
    1630:	88 ef       	ldi	r24, 0xF8	; 248
    1632:	9f ef       	ldi	r25, 0xFF	; 255
    1634:	af ef       	ldi	r26, 0xFF	; 255
    1636:	bf e0       	ldi	r27, 0x0F	; 15
    1638:	04 c0       	rjmp	.+8      	; 0x1642 <_ZN6SdFile8truncateEm+0xe4>
    163a:	88 ef       	ldi	r24, 0xF8	; 248
    163c:	9f ef       	ldi	r25, 0xFF	; 255
    163e:	a0 e0       	ldi	r26, 0x00	; 0
    1640:	b0 e0       	ldi	r27, 0x00	; 0
    1642:	48 17       	cp	r20, r24
    1644:	59 07       	cpc	r21, r25
    1646:	6a 07       	cpc	r22, r26
    1648:	7b 07       	cpc	r23, r27
    164a:	98 f4       	brcc	.+38     	; 0x1672 <_ZN6SdFile8truncateEm+0x114>
    164c:	cf 01       	movw	r24, r30
      // free extra clusters
      if (!vol_->freeChain(toFree)) return false;
    164e:	0e 94 bf 13 	call	0x277e	; 0x277e <_ZN8SdVolume9freeChainEm>
    1652:	88 23       	and	r24, r24
    1654:	59 f1       	breq	.+86     	; 0x16ac <_ZN6SdFile8truncateEm+0x14e>
    1656:	f7 01       	movw	r30, r14
  static uint8_t cacheZeroBlock(uint32_t blockNumber);
  uint8_t chainSize(uint32_t beginCluster, uint32_t* size) const;
  uint8_t fatGet(uint32_t cluster, uint32_t* value) const;
  uint8_t fatPut(uint32_t cluster, uint32_t value);
  uint8_t fatPutEOC(uint32_t cluster) {
    return fatPut(cluster, 0x0FFFFFFF);
    1658:	46 81       	ldd	r20, Z+6	; 0x06
    165a:	57 81       	ldd	r21, Z+7	; 0x07
    165c:	60 85       	ldd	r22, Z+8	; 0x08
    165e:	71 85       	ldd	r23, Z+9	; 0x09
    1660:	83 8d       	ldd	r24, Z+27	; 0x1b
    1662:	94 8d       	ldd	r25, Z+28	; 0x1c
    1664:	0f ef       	ldi	r16, 0xFF	; 255
    1666:	1f ef       	ldi	r17, 0xFF	; 255
    1668:	2f ef       	ldi	r18, 0xFF	; 255
    166a:	3f e0       	ldi	r19, 0x0F	; 15
    166c:	7b d7       	rcall	.+3830   	; 0x2564 <_ZN8SdVolume6fatPutEmm>
    166e:	88 23       	and	r24, r24
    1670:	e9 f0       	breq	.+58     	; 0x16ac <_ZN6SdFile8truncateEm+0x14e>

      // current cluster is end of chain
      if (!vol_->fatPutEOC(curCluster_)) return false;
    1672:	d7 01       	movw	r26, r14
    1674:	53 96       	adiw	r26, 0x13	; 19
    }
  }
  fileSize_ = length;
    1676:	ad 92       	st	X+, r10
    1678:	bd 92       	st	X+, r11
    167a:	cd 92       	st	X+, r12
    167c:	dc 92       	st	X, r13
    167e:	56 97       	sbiw	r26, 0x16	; 22
    1680:	14 96       	adiw	r26, 0x04	; 4
    1682:	8c 91       	ld	r24, X

  // need to update directory entry
  flags_ |= F_FILE_DIR_DIRTY;
    1684:	14 97       	sbiw	r26, 0x04	; 4
    1686:	80 68       	ori	r24, 0x80	; 128
    1688:	14 96       	adiw	r26, 0x04	; 4
    168a:	8c 93       	st	X, r24
    168c:	c7 01       	movw	r24, r14
    168e:	14 df       	rcall	.-472    	; 0x14b8 <_ZN6SdFile4syncEv>

  if (!sync()) return false;
    1690:	88 23       	and	r24, r24
    1692:	61 f0       	breq	.+24     	; 0x16ac <_ZN6SdFile8truncateEm+0x14e>
    1694:	b6 01       	movw	r22, r12
    1696:	a5 01       	movw	r20, r10
    1698:	6a 14       	cp	r6, r10

  // set file to correct position
  return seekSet(newPos);
    169a:	7b 04       	cpc	r7, r11
    169c:	8c 04       	cpc	r8, r12
    169e:	9d 04       	cpc	r9, r13
    16a0:	10 f4       	brcc	.+4      	; 0x16a6 <_ZN6SdFile8truncateEm+0x148>
    16a2:	b4 01       	movw	r22, r8
    16a4:	a3 01       	movw	r20, r6
    16a6:	c7 01       	movw	r24, r14
    16a8:	42 de       	rcall	.-892    	; 0x132e <_ZN6SdFile7seekSetEm>
    16aa:	01 c0       	rjmp	.+2      	; 0x16ae <_ZN6SdFile8truncateEm+0x150>
    16ac:	80 e0       	ldi	r24, 0x00	; 0
    16ae:	0f 90       	pop	r0
    16b0:	0f 90       	pop	r0
    16b2:	0f 90       	pop	r0
    16b4:	0f 90       	pop	r0
}
    16b6:	cf 91       	pop	r28
    16b8:	df 91       	pop	r29
    16ba:	1f 91       	pop	r17
    16bc:	0f 91       	pop	r16
    16be:	ff 90       	pop	r15
    16c0:	ef 90       	pop	r14
    16c2:	df 90       	pop	r13
    16c4:	cf 90       	pop	r12
    16c6:	bf 90       	pop	r11
    16c8:	af 90       	pop	r10
    16ca:	9f 90       	pop	r9
    16cc:	8f 90       	pop	r8
    16ce:	7f 90       	pop	r7
    16d0:	6f 90       	pop	r6
    16d2:	08 95       	ret
    16d4:	f7 01       	movw	r30, r14
    16d6:	83 89       	ldd	r24, Z+19	; 0x13
    16d8:	94 89       	ldd	r25, Z+20	; 0x14
    16da:	a5 89       	ldd	r26, Z+21	; 0x15
uint8_t SdFile::truncate(uint32_t length) {
// error if not a normal file or read-only
  if (!isFile() || !(flags_ & O_WRITE)) return false;

  // error if length is greater than current size
  if (length > fileSize_) return false;
    16dc:	b6 89       	ldd	r27, Z+22	; 0x16
    16de:	84 17       	cp	r24, r20
    16e0:	95 07       	cpc	r25, r21
    16e2:	a6 07       	cpc	r26, r22
    16e4:	b7 07       	cpc	r27, r23
    16e6:	08 f0       	brcs	.+2      	; 0x16ea <_ZN6SdFile8truncateEm+0x18c>
    16e8:	5b cf       	rjmp	.-330    	; 0x15a0 <_ZN6SdFile8truncateEm+0x42>
    16ea:	e0 cf       	rjmp	.-64     	; 0x16ac <_ZN6SdFile8truncateEm+0x14e>

000016ec <_ZN6SdFile4readEPvj>:
 * if end of file is reached.
 * If an error occurs, read() returns -1.  Possible errors include
 * read() called before a file has been opened, corrupt file system
 * or an I/O error occurred.
 */
int16_t SdFile::read(void* buf, uint16_t nbyte) {
    16ec:	2f 92       	push	r2
    16ee:	3f 92       	push	r3
    16f0:	4f 92       	push	r4
    16f2:	5f 92       	push	r5
    16f4:	6f 92       	push	r6
    16f6:	7f 92       	push	r7
    16f8:	8f 92       	push	r8
    16fa:	9f 92       	push	r9
    16fc:	af 92       	push	r10
    16fe:	bf 92       	push	r11
    1700:	cf 92       	push	r12
    1702:	df 92       	push	r13
    1704:	ef 92       	push	r14
    1706:	ff 92       	push	r15
    1708:	0f 93       	push	r16
    170a:	1f 93       	push	r17
    170c:	cf 93       	push	r28
    170e:	df 93       	push	r29
    1710:	ec 01       	movw	r28, r24
    1712:	2a 01       	movw	r4, r20
  uint8_t* dst = reinterpret_cast<uint8_t*>(buf);

  // error if not open or write only
  if (!isOpen() || !(flags_ & O_READ)) return -1;
    1714:	8d 81       	ldd	r24, Y+5	; 0x05
    1716:	88 23       	and	r24, r24
    1718:	09 f4       	brne	.+2      	; 0x171c <_ZN6SdFile4readEPvj+0x30>
    171a:	c4 c0       	rjmp	.+392    	; 0x18a4 <_ZN6SdFile4readEPvj+0x1b8>
    171c:	8c 81       	ldd	r24, Y+4	; 0x04
    171e:	80 ff       	sbrs	r24, 0
    1720:	c1 c0       	rjmp	.+386    	; 0x18a4 <_ZN6SdFile4readEPvj+0x1b8>
    1722:	d6 c0       	rjmp	.+428    	; 0x18d0 <_ZN6SdFile4readEPvj+0x1e4>

  // max bytes left in file
  if (nbyte > (fileSize_ - curPosition_)) nbyte = fileSize_ - curPosition_;
    1724:	25 01       	movw	r4, r10
    1726:	4e 18       	sub	r4, r14
    1728:	5f 08       	sbc	r5, r15
 * If an error occurs, read() returns -1.  Possible errors include
 * read() called before a file has been opened, corrupt file system
 * or an I/O error occurred.
 */
int16_t SdFile::read(void* buf, uint16_t nbyte) {
  uint8_t* dst = reinterpret_cast<uint8_t*>(buf);
    172a:	4b 01       	movw	r8, r22
        if (curPosition_ == 0) {
          // use first cluster in file
          curCluster_ = firstCluster_;
        } else {
          // get next cluster from FAT
          if (!vol_->fatGet(curCluster_, &curCluster_)) return -1;
    172c:	76 e0       	ldi	r23, 0x06	; 6
    172e:	27 2e       	mov	r2, r23
    1730:	31 2c       	mov	r3, r1
    1732:	2c 0e       	add	r2, r28
    1734:	3d 1e       	adc	r3, r29
    1736:	32 01       	movw	r6, r4
    1738:	af c0       	rjmp	.+350    	; 0x1898 <_ZN6SdFile4readEPvj+0x1ac>

  // amount left to read
  uint16_t toRead = nbyte;
  while (toRead > 0) {
    uint32_t block;  // raw device block number
    uint16_t offset = curPosition_ & 0X1FF;  // offset in block
    173a:	2a 85       	ldd	r18, Y+10	; 0x0a
    173c:	3b 85       	ldd	r19, Y+11	; 0x0b
    173e:	4c 85       	ldd	r20, Y+12	; 0x0c
    1740:	5d 85       	ldd	r21, Y+13	; 0x0d
    1742:	6f ef       	ldi	r22, 0xFF	; 255
    1744:	a6 2e       	mov	r10, r22
    1746:	61 e0       	ldi	r22, 0x01	; 1
    1748:	b6 2e       	mov	r11, r22
    174a:	a2 22       	and	r10, r18
    174c:	b3 22       	and	r11, r19
    if (type_ == FAT_FILE_TYPE_ROOT16) {
    174e:	8d 81       	ldd	r24, Y+5	; 0x05
    1750:	79 01       	movw	r14, r18
    1752:	8a 01       	movw	r16, r20
    1754:	99 e0       	ldi	r25, 0x09	; 9
    1756:	16 95       	lsr	r17
    1758:	07 95       	ror	r16
    175a:	f7 94       	ror	r15
    175c:	e7 94       	ror	r14
    175e:	9a 95       	dec	r25
    1760:	d1 f7       	brne	.-12     	; 0x1756 <_ZN6SdFile4readEPvj+0x6a>
    1762:	eb 8d       	ldd	r30, Y+27	; 0x1b
    1764:	fc 8d       	ldd	r31, Y+28	; 0x1c
    1766:	82 30       	cpi	r24, 0x02	; 2
    1768:	49 f4       	brne	.+18     	; 0x177c <_ZN6SdFile4readEPvj+0x90>
      block = vol_->rootDirStart() + (curPosition_ >> 9);
    176a:	42 8d       	ldd	r20, Z+26	; 0x1a
    176c:	53 8d       	ldd	r21, Z+27	; 0x1b
    176e:	64 8d       	ldd	r22, Z+28	; 0x1c
    1770:	75 8d       	ldd	r23, Z+29	; 0x1d
    1772:	4e 0d       	add	r20, r14
    1774:	5f 1d       	adc	r21, r15
    1776:	60 1f       	adc	r22, r16
    1778:	71 1f       	adc	r23, r17
    177a:	3e c0       	rjmp	.+124    	; 0x17f8 <_ZN6SdFile4readEPvj+0x10c>
  uint16_t rootDirEntryCount_;  // number of entries in FAT16 root dir
  uint32_t rootDirStart_;       // root start block for FAT16, cluster for FAT32
  //----------------------------------------------------------------------------
  uint8_t allocContiguous(uint32_t count, uint32_t* curCluster);
  uint8_t blockOfCluster(uint32_t position) const {
          return (position >> 9) & (blocksPerCluster_ - 1);}
    177c:	d4 80       	ldd	r13, Z+4	; 0x04
    177e:	da 94       	dec	r13
    1780:	de 20       	and	r13, r14
    } else {
      uint8_t blockOfCluster = vol_->blockOfCluster(curPosition_);
      if (offset == 0 && blockOfCluster == 0) {
    1782:	a1 14       	cp	r10, r1
    1784:	b1 04       	cpc	r11, r1
    1786:	d1 f4       	brne	.+52     	; 0x17bc <_ZN6SdFile4readEPvj+0xd0>
    1788:	dd 20       	and	r13, r13
    178a:	c1 f4       	brne	.+48     	; 0x17bc <_ZN6SdFile4readEPvj+0xd0>
        // start of new cluster
        if (curPosition_ == 0) {
    178c:	21 15       	cp	r18, r1
    178e:	31 05       	cpc	r19, r1
    1790:	41 05       	cpc	r20, r1
    1792:	51 05       	cpc	r21, r1
    1794:	49 f4       	brne	.+18     	; 0x17a8 <_ZN6SdFile4readEPvj+0xbc>
          // use first cluster in file
          curCluster_ = firstCluster_;
    1796:	8f 89       	ldd	r24, Y+23	; 0x17
    1798:	98 8d       	ldd	r25, Y+24	; 0x18
    179a:	a9 8d       	ldd	r26, Y+25	; 0x19
    179c:	ba 8d       	ldd	r27, Y+26	; 0x1a
    179e:	8e 83       	std	Y+6, r24	; 0x06
    17a0:	9f 83       	std	Y+7, r25	; 0x07
    17a2:	a8 87       	std	Y+8, r26	; 0x08
    17a4:	b9 87       	std	Y+9, r27	; 0x09
    17a6:	0a c0       	rjmp	.+20     	; 0x17bc <_ZN6SdFile4readEPvj+0xd0>
        } else {
          // get next cluster from FAT
          if (!vol_->fatGet(curCluster_, &curCluster_)) return -1;
    17a8:	4e 81       	ldd	r20, Y+6	; 0x06
    17aa:	5f 81       	ldd	r21, Y+7	; 0x07
    17ac:	68 85       	ldd	r22, Y+8	; 0x08
    17ae:	79 85       	ldd	r23, Y+9	; 0x09
    17b0:	cf 01       	movw	r24, r30
    17b2:	91 01       	movw	r18, r2
    17b4:	72 d7       	rcall	.+3812   	; 0x269a <_ZNK8SdVolume6fatGetEmPm>
    17b6:	88 23       	and	r24, r24
    17b8:	09 f4       	brne	.+2      	; 0x17bc <_ZN6SdFile4readEPvj+0xd0>
    17ba:	74 c0       	rjmp	.+232    	; 0x18a4 <_ZN6SdFile4readEPvj+0x1b8>
    17bc:	eb 8d       	ldd	r30, Y+27	; 0x1b
        }
      }
      block = vol_->clusterStartBlock(curCluster_) + blockOfCluster;
    17be:	fc 8d       	ldd	r31, Y+28	; 0x1c
    17c0:	4e 81       	ldd	r20, Y+6	; 0x06
    17c2:	5f 81       	ldd	r21, Y+7	; 0x07
    17c4:	68 85       	ldd	r22, Y+8	; 0x08
    17c6:	79 85       	ldd	r23, Y+9	; 0x09
    17c8:	42 50       	subi	r20, 0x02	; 2
    17ca:	50 40       	sbci	r21, 0x00	; 0
    17cc:	60 40       	sbci	r22, 0x00	; 0
    17ce:	70 40       	sbci	r23, 0x00	; 0
    17d0:	05 84       	ldd	r0, Z+13	; 0x0d
    17d2:	04 c0       	rjmp	.+8      	; 0x17dc <_ZN6SdFile4readEPvj+0xf0>
    17d4:	44 0f       	add	r20, r20
    17d6:	55 1f       	adc	r21, r21
    17d8:	66 1f       	adc	r22, r22
    17da:	77 1f       	adc	r23, r23
    17dc:	0a 94       	dec	r0
    17de:	d2 f7       	brpl	.-12     	; 0x17d4 <_ZN6SdFile4readEPvj+0xe8>
    17e0:	86 85       	ldd	r24, Z+14	; 0x0e
    17e2:	97 85       	ldd	r25, Z+15	; 0x0f
    17e4:	a0 89       	ldd	r26, Z+16	; 0x10
    17e6:	b1 89       	ldd	r27, Z+17	; 0x11
    17e8:	48 0f       	add	r20, r24
    17ea:	59 1f       	adc	r21, r25
    17ec:	6a 1f       	adc	r22, r26
    17ee:	7b 1f       	adc	r23, r27
    17f0:	4d 0d       	add	r20, r13
    17f2:	51 1d       	adc	r21, r1
    17f4:	61 1d       	adc	r22, r1
    17f6:	71 1d       	adc	r23, r1
    17f8:	80 e0       	ldi	r24, 0x00	; 0
    17fa:	92 e0       	ldi	r25, 0x02	; 2
    17fc:	8a 19       	sub	r24, r10
    17fe:	9b 09       	sbc	r25, r11
    1800:	63 01       	movw	r12, r6
    1802:	86 15       	cp	r24, r6
    1804:	97 05       	cpc	r25, r7
    1806:	08 f4       	brcc	.+2      	; 0x180a <_ZN6SdFile4readEPvj+0x11e>
    1808:	6c 01       	movw	r12, r24
    180a:	8c 81       	ldd	r24, Y+4	; 0x04

    // amount to be read from current block
    if (n > (512 - offset)) n = 512 - offset;

    // no buffering needed if n == 512 or user requests no buffering
    if ((unbufferedRead() || n == 512) &&
    180c:	86 fd       	sbrc	r24, 6
    180e:	06 c0       	rjmp	.+12     	; 0x181c <_ZN6SdFile4readEPvj+0x130>
    1810:	80 e0       	ldi	r24, 0x00	; 0
    1812:	c8 16       	cp	r12, r24
    1814:	82 e0       	ldi	r24, 0x02	; 2
    1816:	d8 06       	cpc	r13, r24
    1818:	09 f0       	breq	.+2      	; 0x181c <_ZN6SdFile4readEPvj+0x130>
    181a:	72 c0       	rjmp	.+228    	; 0x1900 <_ZN6SdFile4readEPvj+0x214>
    181c:	80 91 28 02 	lds	r24, 0x0228
    1820:	90 91 29 02 	lds	r25, 0x0229
    1824:	a0 91 2a 02 	lds	r26, 0x022A
    1828:	b0 91 2b 02 	lds	r27, 0x022B
    182c:	48 17       	cp	r20, r24
    182e:	59 07       	cpc	r21, r25
    1830:	6a 07       	cpc	r22, r26
    1832:	7b 07       	cpc	r23, r27
    1834:	09 f4       	brne	.+2      	; 0x1838 <_ZN6SdFile4readEPvj+0x14c>
    1836:	64 c0       	rjmp	.+200    	; 0x1900 <_ZN6SdFile4readEPvj+0x214>
    1838:	80 91 7a 05 	lds	r24, 0x057A
  }
  uint8_t readBlock(uint32_t block, uint8_t* dst) {
    return sdCard_->readBlock(block, dst);}
  uint8_t readData(uint32_t block, uint16_t offset,
    uint16_t count, uint8_t* dst) {
      return sdCard_->readData(block, offset, count, dst);
    183c:	90 91 7b 05 	lds	r25, 0x057B
    1840:	95 01       	movw	r18, r10
    1842:	86 01       	movw	r16, r12
    1844:	74 01       	movw	r14, r8
    1846:	c1 db       	rcall	.-2174   	; 0xfca <_ZN7Sd2Card8readDataEmjjPh>
    1848:	88 23       	and	r24, r24
    184a:	61 f1       	breq	.+88     	; 0x18a4 <_ZN6SdFile4readEPvj+0x1b8>
      block != SdVolume::cacheBlockNumber_) {
      if (!vol_->readData(block, offset, n, dst)) return -1;
    184c:	8c 0c       	add	r8, r12
    184e:	9d 1c       	adc	r9, r13
      dst += n;
    1850:	12 c0       	rjmp	.+36     	; 0x1876 <_ZN6SdFile4readEPvj+0x18a>
    1852:	95 01       	movw	r18, r10
    1854:	26 58       	subi	r18, 0x86	; 134
    } else {
      // read block to cache and copy data to caller
      if (!SdVolume::cacheRawBlock(block, SdVolume::CACHE_FOR_READ)) return -1;
      uint8_t* src = SdVolume::cacheBuffer_.data + offset;
    1856:	3c 4f       	sbci	r19, 0xFC	; 252
    1858:	a9 01       	movw	r20, r18
    185a:	4c 0d       	add	r20, r12
      uint8_t* end = src + n;
    185c:	5d 1d       	adc	r21, r13
    185e:	d4 01       	movw	r26, r8
    1860:	f9 01       	movw	r30, r18
    1862:	02 c0       	rjmp	.+4      	; 0x1868 <_ZN6SdFile4readEPvj+0x17c>
    1864:	81 91       	ld	r24, Z+
    1866:	8d 93       	st	X+, r24
      while (src != end) *dst++ = *src++;
    1868:	e4 17       	cp	r30, r20
    186a:	f5 07       	cpc	r31, r21
    186c:	d9 f7       	brne	.-10     	; 0x1864 <_ZN6SdFile4readEPvj+0x178>
    186e:	e2 1b       	sub	r30, r18
    1870:	f3 0b       	sbc	r31, r19
    1872:	8e 0e       	add	r8, r30
    1874:	9f 1e       	adc	r9, r31
    1876:	96 01       	movw	r18, r12
    1878:	40 e0       	ldi	r20, 0x00	; 0
    }
    curPosition_ += n;
    187a:	50 e0       	ldi	r21, 0x00	; 0
    187c:	8a 85       	ldd	r24, Y+10	; 0x0a
    187e:	9b 85       	ldd	r25, Y+11	; 0x0b
    1880:	ac 85       	ldd	r26, Y+12	; 0x0c
    1882:	bd 85       	ldd	r27, Y+13	; 0x0d
    1884:	82 0f       	add	r24, r18
    1886:	93 1f       	adc	r25, r19
    1888:	a4 1f       	adc	r26, r20
    188a:	b5 1f       	adc	r27, r21
    188c:	8a 87       	std	Y+10, r24	; 0x0a
    188e:	9b 87       	std	Y+11, r25	; 0x0b
    1890:	ac 87       	std	Y+12, r26	; 0x0c
    1892:	bd 87       	std	Y+13, r27	; 0x0d
    1894:	6c 18       	sub	r6, r12
    1896:	7d 08       	sbc	r7, r13
    toRead -= n;
    1898:	61 14       	cp	r6, r1
    189a:	71 04       	cpc	r7, r1
  // max bytes left in file
  if (nbyte > (fileSize_ - curPosition_)) nbyte = fileSize_ - curPosition_;

  // amount left to read
  uint16_t toRead = nbyte;
  while (toRead > 0) {
    189c:	09 f0       	breq	.+2      	; 0x18a0 <_ZN6SdFile4readEPvj+0x1b4>
    189e:	4d cf       	rjmp	.-358    	; 0x173a <_ZN6SdFile4readEPvj+0x4e>
    18a0:	a2 01       	movw	r20, r4
    18a2:	02 c0       	rjmp	.+4      	; 0x18a8 <_ZN6SdFile4readEPvj+0x1bc>
      while (src != end) *dst++ = *src++;
    }
    curPosition_ += n;
    toRead -= n;
  }
  return nbyte;
    18a4:	4f ef       	ldi	r20, 0xFF	; 255
    18a6:	5f ef       	ldi	r21, 0xFF	; 255
    18a8:	ca 01       	movw	r24, r20
    18aa:	df 91       	pop	r29
}
    18ac:	cf 91       	pop	r28
    18ae:	1f 91       	pop	r17
    18b0:	0f 91       	pop	r16
    18b2:	ff 90       	pop	r15
    18b4:	ef 90       	pop	r14
    18b6:	df 90       	pop	r13
    18b8:	cf 90       	pop	r12
    18ba:	bf 90       	pop	r11
    18bc:	af 90       	pop	r10
    18be:	9f 90       	pop	r9
    18c0:	8f 90       	pop	r8
    18c2:	7f 90       	pop	r7
    18c4:	6f 90       	pop	r6
    18c6:	5f 90       	pop	r5
    18c8:	4f 90       	pop	r4
    18ca:	3f 90       	pop	r3
    18cc:	2f 90       	pop	r2
    18ce:	08 95       	ret
    18d0:	ab 88       	ldd	r10, Y+19	; 0x13
    18d2:	bc 88       	ldd	r11, Y+20	; 0x14

  // error if not open or write only
  if (!isOpen() || !(flags_ & O_READ)) return -1;

  // max bytes left in file
  if (nbyte > (fileSize_ - curPosition_)) nbyte = fileSize_ - curPosition_;
    18d4:	cd 88       	ldd	r12, Y+21	; 0x15
    18d6:	de 88       	ldd	r13, Y+22	; 0x16
    18d8:	ea 84       	ldd	r14, Y+10	; 0x0a
    18da:	fb 84       	ldd	r15, Y+11	; 0x0b
    18dc:	0c 85       	ldd	r16, Y+12	; 0x0c
    18de:	1d 85       	ldd	r17, Y+13	; 0x0d
    18e0:	9a 01       	movw	r18, r20
    18e2:	40 e0       	ldi	r20, 0x00	; 0
    18e4:	50 e0       	ldi	r21, 0x00	; 0
    18e6:	d6 01       	movw	r26, r12
    18e8:	c5 01       	movw	r24, r10
    18ea:	8e 19       	sub	r24, r14
    18ec:	9f 09       	sbc	r25, r15
    18ee:	a0 0b       	sbc	r26, r16
    18f0:	b1 0b       	sbc	r27, r17
    18f2:	82 17       	cp	r24, r18
    18f4:	93 07       	cpc	r25, r19
    18f6:	a4 07       	cpc	r26, r20
    18f8:	b5 07       	cpc	r27, r21
    18fa:	08 f4       	brcc	.+2      	; 0x18fe <_ZN6SdFile4readEPvj+0x212>
    18fc:	13 cf       	rjmp	.-474    	; 0x1724 <_ZN6SdFile4readEPvj+0x38>
    18fe:	15 cf       	rjmp	.-470    	; 0x172a <_ZN6SdFile4readEPvj+0x3e>
    1900:	cb 01       	movw	r24, r22
    1902:	ba 01       	movw	r22, r20
      block != SdVolume::cacheBlockNumber_) {
      if (!vol_->readData(block, offset, n, dst)) return -1;
      dst += n;
    } else {
      // read block to cache and copy data to caller
      if (!SdVolume::cacheRawBlock(block, SdVolume::CACHE_FOR_READ)) return -1;
    1904:	40 e0       	ldi	r20, 0x00	; 0
    1906:	b1 d4       	rcall	.+2402   	; 0x226a <_ZN8SdVolume13cacheRawBlockEmh>
    1908:	88 23       	and	r24, r24
    190a:	09 f0       	breq	.+2      	; 0x190e <_ZN6SdFile4readEPvj+0x222>
    190c:	a2 cf       	rjmp	.-188    	; 0x1852 <_ZN6SdFile4readEPvj+0x166>
    190e:	ca cf       	rjmp	.-108    	; 0x18a4 <_ZN6SdFile4readEPvj+0x1b8>

00001910 <_ZN6SdFile12readDirCacheEv>:
  return n < 0 ? -1 : 0;
}
//------------------------------------------------------------------------------
// Read next directory entry into the cache
// Assumes file is correctly positioned
dir_t* SdFile::readDirCache(void) {
    1910:	cf 92       	push	r12
    1912:	df 92       	push	r13
    1914:	ef 92       	push	r14
    1916:	ff 92       	push	r15
    1918:	0f 93       	push	r16
    191a:	1f 93       	push	r17
    191c:	df 93       	push	r29
    191e:	cf 93       	push	r28
    1920:	0f 92       	push	r0
    1922:	cd b7       	in	r28, 0x3d	; 61
    1924:	de b7       	in	r29, 0x3e	; 62
    1926:	6c 01       	movw	r12, r24
  // error if not directory
  if (!isDir()) return NULL;
    1928:	fc 01       	movw	r30, r24
    192a:	85 81       	ldd	r24, Z+5	; 0x05
    192c:	82 30       	cpi	r24, 0x02	; 2
    192e:	68 f0       	brcs	.+26     	; 0x194a <_ZN6SdFile12readDirCacheEv+0x3a>

  // index of entry in cache
  uint8_t i = (curPosition_ >> 5) & 0XF;
    1930:	e2 84       	ldd	r14, Z+10	; 0x0a
    1932:	f3 84       	ldd	r15, Z+11	; 0x0b
    1934:	04 85       	ldd	r16, Z+12	; 0x0c
    1936:	15 85       	ldd	r17, Z+13	; 0x0d
   * \return For success read returns the next byte in the file as an int.
   * If an error occurs or end of file is reached -1 is returned.
   */
  int16_t read(void) {
    uint8_t b;
    return read(&b, 1) == 1 ? b : -1;
    1938:	c6 01       	movw	r24, r12
    193a:	be 01       	movw	r22, r28
    193c:	6f 5f       	subi	r22, 0xFF	; 255
    193e:	7f 4f       	sbci	r23, 0xFF	; 255
    1940:	41 e0       	ldi	r20, 0x01	; 1
    1942:	50 e0       	ldi	r21, 0x00	; 0
    1944:	d3 de       	rcall	.-602    	; 0x16ec <_ZN6SdFile4readEPvj>
    1946:	01 97       	sbiw	r24, 0x01	; 1
    1948:	69 f0       	breq	.+26     	; 0x1964 <_ZN6SdFile12readDirCacheEv+0x54>
    194a:	20 e0       	ldi	r18, 0x00	; 0
    194c:	30 e0       	ldi	r19, 0x00	; 0
    194e:	c9 01       	movw	r24, r18
  // advance to next entry
  curPosition_ += 31;

  // return pointer to entry
  return (SdVolume::cacheBuffer_.dir + i);
}
    1950:	0f 90       	pop	r0
    1952:	cf 91       	pop	r28
    1954:	df 91       	pop	r29
    1956:	1f 91       	pop	r17
    1958:	0f 91       	pop	r16
    195a:	ff 90       	pop	r15
    195c:	ef 90       	pop	r14
    195e:	df 90       	pop	r13
    1960:	cf 90       	pop	r12
    1962:	08 95       	ret
    1964:	f6 01       	movw	r30, r12

  // use read to locate and cache block
  if (read() < 0) return NULL;

  // advance to next entry
  curPosition_ += 31;
    1966:	82 85       	ldd	r24, Z+10	; 0x0a
    1968:	93 85       	ldd	r25, Z+11	; 0x0b
    196a:	a4 85       	ldd	r26, Z+12	; 0x0c
    196c:	b5 85       	ldd	r27, Z+13	; 0x0d
    196e:	4f 96       	adiw	r24, 0x1f	; 31
    1970:	a1 1d       	adc	r26, r1
    1972:	b1 1d       	adc	r27, r1
    1974:	82 87       	std	Z+10, r24	; 0x0a
    1976:	93 87       	std	Z+11, r25	; 0x0b
    1978:	a4 87       	std	Z+12, r26	; 0x0c
    197a:	b5 87       	std	Z+13, r27	; 0x0d
    197c:	f5 e0       	ldi	r31, 0x05	; 5

  // return pointer to entry
  return (SdVolume::cacheBuffer_.dir + i);
    197e:	16 95       	lsr	r17
    1980:	07 95       	ror	r16
    1982:	f7 94       	ror	r15
    1984:	e7 94       	ror	r14
    1986:	fa 95       	dec	r31
    1988:	d1 f7       	brne	.-12     	; 0x197e <_ZN6SdFile12readDirCacheEv+0x6e>
    198a:	8e 2d       	mov	r24, r14
    198c:	8f 70       	andi	r24, 0x0F	; 15
    198e:	28 2f       	mov	r18, r24
    1990:	30 e0       	ldi	r19, 0x00	; 0
    1992:	e5 e0       	ldi	r30, 0x05	; 5
    1994:	22 0f       	add	r18, r18
    1996:	33 1f       	adc	r19, r19
    1998:	ea 95       	dec	r30
    199a:	e1 f7       	brne	.-8      	; 0x1994 <_ZN6SdFile12readDirCacheEv+0x84>
    199c:	26 58       	subi	r18, 0x86	; 134
    199e:	3c 4f       	sbci	r19, 0xFC	; 252
    19a0:	d6 cf       	rjmp	.-84     	; 0x194e <_ZN6SdFile12readDirCacheEv+0x3e>

000019a2 <_ZN6SdFile8openRootEP8SdVolume>:
 * \return The value one, true, is returned for success and
 * the value zero, false, is returned for failure.
 * Reasons for failure include the FAT volume has not been initialized
 * or it a FAT12 volume.
 */
uint8_t SdFile::openRoot(SdVolume* vol) {
    19a2:	0f 93       	push	r16
    19a4:	1f 93       	push	r17
    19a6:	cf 93       	push	r28
    19a8:	df 93       	push	r29
    19aa:	ec 01       	movw	r28, r24
    19ac:	8b 01       	movw	r16, r22
  // error if file is already open
  if (isOpen()) return false;
    19ae:	8d 81       	ldd	r24, Y+5	; 0x05
    19b0:	88 23       	and	r24, r24
    19b2:	09 f0       	breq	.+2      	; 0x19b6 <_ZN6SdFile8openRootEP8SdVolume+0x14>
    19b4:	40 c0       	rjmp	.+128    	; 0x1a36 <_ZN6SdFile8openRootEP8SdVolume+0x94>
  /** \return The number of FAT structures on the volume. */
  uint8_t fatCount(void) const {return fatCount_;}
  /** \return The logical block number for the start of the first FAT. */
  uint32_t fatStartBlock(void) const {return fatStartBlock_;}
  /** \return The FAT type of the volume. Values are 12, 16 or 32. */
  uint8_t fatType(void) const {return fatType_;}
    19b6:	fb 01       	movw	r30, r22
    19b8:	87 89       	ldd	r24, Z+23	; 0x17

  if (vol->fatType() == 16) {
    19ba:	80 31       	cpi	r24, 0x10	; 16
    19bc:	b1 f4       	brne	.+44     	; 0x19ea <_ZN6SdFile8openRootEP8SdVolume+0x48>
    type_ = FAT_FILE_TYPE_ROOT16;
    19be:	82 e0       	ldi	r24, 0x02	; 2
    19c0:	8d 83       	std	Y+5, r24	; 0x05
    firstCluster_ = 0;
    19c2:	1f 8a       	std	Y+23, r1	; 0x17
    19c4:	18 8e       	std	Y+24, r1	; 0x18
    19c6:	19 8e       	std	Y+25, r1	; 0x19
    19c8:	1a 8e       	std	Y+26, r1	; 0x1a
    fileSize_ = 32 * vol->rootDirEntryCount();
    19ca:	80 8d       	ldd	r24, Z+24	; 0x18
    19cc:	91 8d       	ldd	r25, Z+25	; 0x19
    19ce:	a0 e0       	ldi	r26, 0x00	; 0
    19d0:	b0 e0       	ldi	r27, 0x00	; 0
    19d2:	45 e0       	ldi	r20, 0x05	; 5
    19d4:	88 0f       	add	r24, r24
    19d6:	99 1f       	adc	r25, r25
    19d8:	aa 1f       	adc	r26, r26
    19da:	bb 1f       	adc	r27, r27
    19dc:	4a 95       	dec	r20
    19de:	d1 f7       	brne	.-12     	; 0x19d4 <_ZN6SdFile8openRootEP8SdVolume+0x32>
    19e0:	8b 8b       	std	Y+19, r24	; 0x13
    19e2:	9c 8b       	std	Y+20, r25	; 0x14
    19e4:	ad 8b       	std	Y+21, r26	; 0x15
    19e6:	be 8b       	std	Y+22, r27	; 0x16
    19e8:	14 c0       	rjmp	.+40     	; 0x1a12 <_ZN6SdFile8openRootEP8SdVolume+0x70>
  } else if (vol->fatType() == 32) {
    19ea:	80 32       	cpi	r24, 0x20	; 32
    19ec:	21 f5       	brne	.+72     	; 0x1a36 <_ZN6SdFile8openRootEP8SdVolume+0x94>
    type_ = FAT_FILE_TYPE_ROOT32;
    19ee:	83 e0       	ldi	r24, 0x03	; 3
    19f0:	8d 83       	std	Y+5, r24	; 0x05
  /** \return The number of entries in the root directory for FAT16 volumes. */
  uint32_t rootDirEntryCount(void) const {return rootDirEntryCount_;}
  /** \return The logical block number for the start of the root directory
       on FAT16 volumes or the first cluster number on FAT32 volumes. */
  uint32_t rootDirStart(void) const {return rootDirStart_;}
    19f2:	fb 01       	movw	r30, r22
    19f4:	42 8d       	ldd	r20, Z+26	; 0x1a
    19f6:	53 8d       	ldd	r21, Z+27	; 0x1b
    19f8:	64 8d       	ldd	r22, Z+28	; 0x1c
    19fa:	75 8d       	ldd	r23, Z+29	; 0x1d
    firstCluster_ = vol->rootDirStart();
    19fc:	4f 8b       	std	Y+23, r20	; 0x17
    19fe:	58 8f       	std	Y+24, r21	; 0x18
    1a00:	69 8f       	std	Y+25, r22	; 0x19
    1a02:	7a 8f       	std	Y+26, r23	; 0x1a
    if (!vol->chainSize(firstCluster_, &fileSize_)) return false;
    1a04:	9e 01       	movw	r18, r28
    1a06:	2d 5e       	subi	r18, 0xED	; 237
    1a08:	3f 4f       	sbci	r19, 0xFF	; 255
    1a0a:	c8 01       	movw	r24, r16
    1a0c:	0f d7       	rcall	.+3614   	; 0x282c <_ZNK8SdVolume9chainSizeEmPm>
    1a0e:	88 23       	and	r24, r24
    1a10:	91 f0       	breq	.+36     	; 0x1a36 <_ZN6SdFile8openRootEP8SdVolume+0x94>
    1a12:	1c 8f       	std	Y+28, r17	; 0x1c
  } else {
    // volume is not initialized or FAT12
    return false;
  }
  vol_ = vol;
    1a14:	0b 8f       	std	Y+27, r16	; 0x1b
    1a16:	81 e0       	ldi	r24, 0x01	; 1
  // read only
  flags_ = O_READ;
    1a18:	8c 83       	std	Y+4, r24	; 0x04
    1a1a:	1e 82       	std	Y+6, r1	; 0x06

  // set to start of file
  curCluster_ = 0;
    1a1c:	1f 82       	std	Y+7, r1	; 0x07
    1a1e:	18 86       	std	Y+8, r1	; 0x08
    1a20:	19 86       	std	Y+9, r1	; 0x09
    1a22:	1a 86       	std	Y+10, r1	; 0x0a
  curPosition_ = 0;
    1a24:	1b 86       	std	Y+11, r1	; 0x0b
    1a26:	1c 86       	std	Y+12, r1	; 0x0c
    1a28:	1d 86       	std	Y+13, r1	; 0x0d
    1a2a:	1e 86       	std	Y+14, r1	; 0x0e

  // root has no directory entry
  dirBlock_ = 0;
    1a2c:	1f 86       	std	Y+15, r1	; 0x0f
    1a2e:	18 8a       	std	Y+16, r1	; 0x10
    1a30:	19 8a       	std	Y+17, r1	; 0x11
    1a32:	1a 8a       	std	Y+18, r1	; 0x12
  dirIndex_ = 0;
    1a34:	01 c0       	rjmp	.+2      	; 0x1a38 <_ZN6SdFile8openRootEP8SdVolume+0x96>
    1a36:	80 e0       	ldi	r24, 0x00	; 0
  return true;
    1a38:	df 91       	pop	r29
}
    1a3a:	cf 91       	pop	r28
    1a3c:	1f 91       	pop	r17
    1a3e:	0f 91       	pop	r16
    1a40:	08 95       	ret

00001a42 <_ZN6SdFile15openCachedEntryEhh>:
  // open cached entry
  return openCachedEntry(index & 0XF, oflag);
}
//------------------------------------------------------------------------------
// open a cached directory entry. Assumes vol_ is initializes
uint8_t SdFile::openCachedEntry(uint8_t dirIndex, uint8_t oflag) {
    1a42:	1f 93       	push	r17
    1a44:	cf 93       	push	r28
    1a46:	df 93       	push	r29
    1a48:	ec 01       	movw	r28, r24
    1a4a:	14 2f       	mov	r17, r20
  // location of entry in cache
  dir_t* p = SdVolume::cacheBuffer_.dir + dirIndex;
    1a4c:	e6 2f       	mov	r30, r22
    1a4e:	f0 e0       	ldi	r31, 0x00	; 0
    1a50:	75 e0       	ldi	r23, 0x05	; 5
    1a52:	ee 0f       	add	r30, r30
    1a54:	ff 1f       	adc	r31, r31
    1a56:	7a 95       	dec	r23
    1a58:	e1 f7       	brne	.-8      	; 0x1a52 <_ZN6SdFile15openCachedEntryEhh+0x10>
    1a5a:	e6 58       	subi	r30, 0x86	; 134
    1a5c:	fc 4f       	sbci	r31, 0xFC	; 252

  // write or truncate is an error for a directory or read-only file
  if (p->attributes & (DIR_ATT_READ_ONLY | DIR_ATT_DIRECTORY)) {
    1a5e:	83 85       	ldd	r24, Z+11	; 0x0b
    1a60:	81 71       	andi	r24, 0x11	; 17
    1a62:	21 f0       	breq	.+8      	; 0x1a6c <_ZN6SdFile15openCachedEntryEhh+0x2a>
    if (oflag & (O_WRITE | O_TRUNC)) return false;
    1a64:	84 2f       	mov	r24, r20
    1a66:	82 74       	andi	r24, 0x42	; 66
    1a68:	09 f0       	breq	.+2      	; 0x1a6c <_ZN6SdFile15openCachedEntryEhh+0x2a>
    1a6a:	52 c0       	rjmp	.+164    	; 0x1b10 <_ZN6SdFile15openCachedEntryEhh+0xce>
  }
  // remember location of directory entry on SD
  dirIndex_ = dirIndex;
    1a6c:	6a 8b       	std	Y+18, r22	; 0x12
  dirBlock_ = SdVolume::cacheBlockNumber_;
    1a6e:	80 91 28 02 	lds	r24, 0x0228
    1a72:	90 91 29 02 	lds	r25, 0x0229
    1a76:	a0 91 2a 02 	lds	r26, 0x022A
    1a7a:	b0 91 2b 02 	lds	r27, 0x022B
    1a7e:	8e 87       	std	Y+14, r24	; 0x0e
    1a80:	9f 87       	std	Y+15, r25	; 0x0f
    1a82:	a8 8b       	std	Y+16, r26	; 0x10
    1a84:	b9 8b       	std	Y+17, r27	; 0x11

  // copy first cluster number for directory fields
  firstCluster_ = (uint32_t)p->firstClusterHigh << 16;
    1a86:	84 89       	ldd	r24, Z+20	; 0x14
    1a88:	95 89       	ldd	r25, Z+21	; 0x15
    1a8a:	a0 e0       	ldi	r26, 0x00	; 0
    1a8c:	b0 e0       	ldi	r27, 0x00	; 0
    1a8e:	bc 01       	movw	r22, r24
    1a90:	55 27       	eor	r21, r21
    1a92:	44 27       	eor	r20, r20
  firstCluster_ |= p->firstClusterLow;
    1a94:	82 8d       	ldd	r24, Z+26	; 0x1a
    1a96:	93 8d       	ldd	r25, Z+27	; 0x1b
    1a98:	a0 e0       	ldi	r26, 0x00	; 0
    1a9a:	b0 e0       	ldi	r27, 0x00	; 0
    1a9c:	48 2b       	or	r20, r24
    1a9e:	59 2b       	or	r21, r25
    1aa0:	6a 2b       	or	r22, r26
    1aa2:	7b 2b       	or	r23, r27
    1aa4:	4f 8b       	std	Y+23, r20	; 0x17
    1aa6:	58 8f       	std	Y+24, r21	; 0x18
    1aa8:	69 8f       	std	Y+25, r22	; 0x19
    1aaa:	7a 8f       	std	Y+26, r23	; 0x1a
}
/** Mask for file/subdirectory tests */
uint8_t const DIR_ATT_FILE_TYPE_MASK = (DIR_ATT_VOLUME_ID | DIR_ATT_DIRECTORY);
/** Directory entry is for a file */
static inline uint8_t DIR_IS_FILE(const dir_t* dir) {
  return (dir->attributes & DIR_ATT_FILE_TYPE_MASK) == 0;
    1aac:	83 85       	ldd	r24, Z+11	; 0x0b
    1aae:	90 e0       	ldi	r25, 0x00	; 0
    1ab0:	88 71       	andi	r24, 0x18	; 24
    1ab2:	90 70       	andi	r25, 0x00	; 0

  // make sure it is a normal file or subdirectory
  if (DIR_IS_FILE(p)) {
    1ab4:	00 97       	sbiw	r24, 0x00	; 0
    1ab6:	51 f4       	brne	.+20     	; 0x1acc <_ZN6SdFile15openCachedEntryEhh+0x8a>
    fileSize_ = p->fileSize;
    1ab8:	84 8d       	ldd	r24, Z+28	; 0x1c
    1aba:	95 8d       	ldd	r25, Z+29	; 0x1d
    1abc:	a6 8d       	ldd	r26, Z+30	; 0x1e
    1abe:	b7 8d       	ldd	r27, Z+31	; 0x1f
    1ac0:	8b 8b       	std	Y+19, r24	; 0x13
    1ac2:	9c 8b       	std	Y+20, r25	; 0x14
    1ac4:	ad 8b       	std	Y+21, r26	; 0x15
    1ac6:	be 8b       	std	Y+22, r27	; 0x16
    type_ = FAT_FILE_TYPE_NORMAL;
    1ac8:	81 e0       	ldi	r24, 0x01	; 1
    1aca:	0b c0       	rjmp	.+22     	; 0x1ae2 <_ZN6SdFile15openCachedEntryEhh+0xa0>
  } else if (DIR_IS_SUBDIR(p)) {
    1acc:	40 97       	sbiw	r24, 0x10	; 16
    1ace:	01 f5       	brne	.+64     	; 0x1b10 <_ZN6SdFile15openCachedEntryEhh+0xce>
    if (!vol_->chainSize(firstCluster_, &fileSize_)) return false;
    1ad0:	9e 01       	movw	r18, r28
    1ad2:	2d 5e       	subi	r18, 0xED	; 237
    1ad4:	3f 4f       	sbci	r19, 0xFF	; 255
    1ad6:	8b 8d       	ldd	r24, Y+27	; 0x1b
    1ad8:	9c 8d       	ldd	r25, Y+28	; 0x1c
    1ada:	a8 d6       	rcall	.+3408   	; 0x282c <_ZNK8SdVolume9chainSizeEmPm>
    1adc:	88 23       	and	r24, r24
    1ade:	c1 f0       	breq	.+48     	; 0x1b10 <_ZN6SdFile15openCachedEntryEhh+0xce>
    1ae0:	84 e0       	ldi	r24, 0x04	; 4
    type_ = FAT_FILE_TYPE_SUBDIR;
    1ae2:	8d 83       	std	Y+5, r24	; 0x05
    1ae4:	81 2f       	mov	r24, r17
  } else {
    return false;
  }
  // save open flags for read/write
  flags_ = oflag & (O_ACCMODE | O_SYNC | O_APPEND);
    1ae6:	8f 70       	andi	r24, 0x0F	; 15
    1ae8:	8c 83       	std	Y+4, r24	; 0x04
    1aea:	1e 82       	std	Y+6, r1	; 0x06

  // set to start of file
  curCluster_ = 0;
    1aec:	1f 82       	std	Y+7, r1	; 0x07
    1aee:	18 86       	std	Y+8, r1	; 0x08
    1af0:	19 86       	std	Y+9, r1	; 0x09
    1af2:	1a 86       	std	Y+10, r1	; 0x0a
  curPosition_ = 0;
    1af4:	1b 86       	std	Y+11, r1	; 0x0b
    1af6:	1c 86       	std	Y+12, r1	; 0x0c
    1af8:	1d 86       	std	Y+13, r1	; 0x0d
    1afa:	16 fd       	sbrc	r17, 6

  // truncate file to zero length if requested
  if (oflag & O_TRUNC) return truncate(0);
    1afc:	02 c0       	rjmp	.+4      	; 0x1b02 <_ZN6SdFile15openCachedEntryEhh+0xc0>
    1afe:	81 e0       	ldi	r24, 0x01	; 1
    1b00:	08 c0       	rjmp	.+16     	; 0x1b12 <_ZN6SdFile15openCachedEntryEhh+0xd0>
    1b02:	ce 01       	movw	r24, r28
    1b04:	40 e0       	ldi	r20, 0x00	; 0
    1b06:	50 e0       	ldi	r21, 0x00	; 0
    1b08:	60 e0       	ldi	r22, 0x00	; 0
    1b0a:	70 e0       	ldi	r23, 0x00	; 0
    1b0c:	28 dd       	rcall	.-1456   	; 0x155e <_ZN6SdFile8truncateEm>
    1b0e:	01 c0       	rjmp	.+2      	; 0x1b12 <_ZN6SdFile15openCachedEntryEhh+0xd0>
    1b10:	80 e0       	ldi	r24, 0x00	; 0
    1b12:	df 91       	pop	r29
    1b14:	cf 91       	pop	r28
  return true;
}
    1b16:	1f 91       	pop	r17
    1b18:	08 95       	ret

00001b1a <_ZN6SdFile10addClusterEv>:
// suppress cpplint warnings with NOLINT comment
void (*SdFile::oldDateTime_)(uint16_t& date, uint16_t& time) = NULL;  // NOLINT
#endif  // ALLOW_DEPRECATED_FUNCTIONS
//------------------------------------------------------------------------------
// add a cluster to a file
uint8_t SdFile::addCluster() {
    1b1a:	cf 93       	push	r28
    1b1c:	df 93       	push	r29
    1b1e:	ec 01       	movw	r28, r24
  if (!vol_->allocContiguous(1, &curCluster_)) return false;
    1b20:	9c 01       	movw	r18, r24
    1b22:	2a 5f       	subi	r18, 0xFA	; 250
    1b24:	3f 4f       	sbci	r19, 0xFF	; 255
    1b26:	8b 8d       	ldd	r24, Y+27	; 0x1b
    1b28:	9c 8d       	ldd	r25, Y+28	; 0x1c
    1b2a:	41 e0       	ldi	r20, 0x01	; 1
    1b2c:	50 e0       	ldi	r21, 0x00	; 0
    1b2e:	60 e0       	ldi	r22, 0x00	; 0
    1b30:	70 e0       	ldi	r23, 0x00	; 0
    1b32:	ea d6       	rcall	.+3540   	; 0x2908 <_ZN8SdVolume15allocContiguousEmPm>
    1b34:	88 23       	and	r24, r24
    1b36:	a1 f0       	breq	.+40     	; 0x1b60 <_ZN6SdFile10addClusterEv+0x46>
    1b38:	8f 89       	ldd	r24, Y+23	; 0x17

  // if first cluster of file link to directory entry
  if (firstCluster_ == 0) {
    1b3a:	98 8d       	ldd	r25, Y+24	; 0x18
    1b3c:	a9 8d       	ldd	r26, Y+25	; 0x19
    1b3e:	ba 8d       	ldd	r27, Y+26	; 0x1a
    1b40:	00 97       	sbiw	r24, 0x00	; 0
    1b42:	a1 05       	cpc	r26, r1
    1b44:	b1 05       	cpc	r27, r1
    1b46:	59 f4       	brne	.+22     	; 0x1b5e <_ZN6SdFile10addClusterEv+0x44>
    1b48:	8e 81       	ldd	r24, Y+6	; 0x06
    firstCluster_ = curCluster_;
    1b4a:	9f 81       	ldd	r25, Y+7	; 0x07
    1b4c:	a8 85       	ldd	r26, Y+8	; 0x08
    1b4e:	b9 85       	ldd	r27, Y+9	; 0x09
    1b50:	8f 8b       	std	Y+23, r24	; 0x17
    1b52:	98 8f       	std	Y+24, r25	; 0x18
    1b54:	a9 8f       	std	Y+25, r26	; 0x19
    1b56:	ba 8f       	std	Y+26, r27	; 0x1a
    1b58:	8c 81       	ldd	r24, Y+4	; 0x04
    flags_ |= F_FILE_DIR_DIRTY;
    1b5a:	80 68       	ori	r24, 0x80	; 128
    1b5c:	8c 83       	std	Y+4, r24	; 0x04
    1b5e:	81 e0       	ldi	r24, 0x01	; 1
    1b60:	df 91       	pop	r29
  }
  return true;
}
    1b62:	cf 91       	pop	r28
    1b64:	08 95       	ret

00001b66 <_ZN6SdFile5writeEPKvj>:
 * \a nbyte.  If an error occurs, write() returns -1.  Possible errors
 * include write() is called before a file has been opened, write is called
 * for a read-only file, device is full, a corrupt file system or an I/O error.
 *
 */
size_t SdFile::write(const void* buf, uint16_t nbyte) {
    1b66:	2f 92       	push	r2
    1b68:	3f 92       	push	r3
    1b6a:	4f 92       	push	r4
    1b6c:	5f 92       	push	r5
    1b6e:	7f 92       	push	r7
    1b70:	8f 92       	push	r8
    1b72:	9f 92       	push	r9
    1b74:	af 92       	push	r10
    1b76:	bf 92       	push	r11
    1b78:	cf 92       	push	r12
    1b7a:	df 92       	push	r13
    1b7c:	ef 92       	push	r14
    1b7e:	ff 92       	push	r15
    1b80:	0f 93       	push	r16
    1b82:	1f 93       	push	r17
    1b84:	df 93       	push	r29
    1b86:	cf 93       	push	r28
    1b88:	00 d0       	rcall	.+0      	; 0x1b8a <_ZN6SdFile5writeEPKvj+0x24>
    1b8a:	00 d0       	rcall	.+0      	; 0x1b8c <_ZN6SdFile5writeEPKvj+0x26>
    1b8c:	00 d0       	rcall	.+0      	; 0x1b8e <_ZN6SdFile5writeEPKvj+0x28>
    1b8e:	cd b7       	in	r28, 0x3d	; 61
    1b90:	de b7       	in	r29, 0x3e	; 62
    1b92:	6c 01       	movw	r12, r24
    1b94:	16 2f       	mov	r17, r22
    1b96:	07 2f       	mov	r16, r23
    1b98:	5e 83       	std	Y+6, r21	; 0x06
    1b9a:	4d 83       	std	Y+5, r20	; 0x05

  // number of bytes left to write  -  must be before goto statements
  uint16_t nToWrite = nbyte;

  // error if not a normal file or is read-only
  if (!isFile() || !(flags_ & O_WRITE)) goto writeErrorReturn;
    1b9c:	dc 01       	movw	r26, r24
    1b9e:	15 96       	adiw	r26, 0x05	; 5
    1ba0:	8c 91       	ld	r24, X
    1ba2:	15 97       	sbiw	r26, 0x05	; 5
    1ba4:	81 30       	cpi	r24, 0x01	; 1
    1ba6:	09 f0       	breq	.+2      	; 0x1baa <_ZN6SdFile5writeEPKvj+0x44>
    1ba8:	69 c1       	rjmp	.+722    	; 0x1e7c <_ZN6SdFile5writeEPKvj+0x316>
    1baa:	14 96       	adiw	r26, 0x04	; 4
    1bac:	8c 91       	ld	r24, X
    1bae:	81 ff       	sbrs	r24, 1
    1bb0:	65 c1       	rjmp	.+714    	; 0x1e7c <_ZN6SdFile5writeEPKvj+0x316>
    1bb2:	87 c1       	rjmp	.+782    	; 0x1ec2 <_ZN6SdFile5writeEPKvj+0x35c>

  // seek to end of file if append flag
  if ((flags_ & O_APPEND) && curPosition_ != fileSize_) {
    1bb4:	f6 01       	movw	r30, r12
    1bb6:	43 89       	ldd	r20, Z+19	; 0x13
    1bb8:	54 89       	ldd	r21, Z+20	; 0x14
    1bba:	65 89       	ldd	r22, Z+21	; 0x15
    1bbc:	76 89       	ldd	r23, Z+22	; 0x16
    1bbe:	82 85       	ldd	r24, Z+10	; 0x0a
    1bc0:	93 85       	ldd	r25, Z+11	; 0x0b
    1bc2:	a4 85       	ldd	r26, Z+12	; 0x0c
    1bc4:	b5 85       	ldd	r27, Z+13	; 0x0d
    1bc6:	84 17       	cp	r24, r20
    1bc8:	95 07       	cpc	r25, r21
    1bca:	a6 07       	cpc	r26, r22
    1bcc:	b7 07       	cpc	r27, r23
    1bce:	29 f0       	breq	.+10     	; 0x1bda <_ZN6SdFile5writeEPKvj+0x74>
  }
  /**
   *  Set the files current position to end of file.  Useful to position
   *  a file for append. See seekSet().
   */
  uint8_t seekEnd(void) {return seekSet(fileSize_);}
    1bd0:	c6 01       	movw	r24, r12
    1bd2:	ad db       	rcall	.-2214   	; 0x132e <_ZN6SdFile7seekSetEm>
    1bd4:	88 23       	and	r24, r24
    if (!seekEnd()) goto writeErrorReturn;
    1bd6:	09 f4       	brne	.+2      	; 0x1bda <_ZN6SdFile5writeEPKvj+0x74>
    1bd8:	51 c1       	rjmp	.+674    	; 0x1e7c <_ZN6SdFile5writeEPKvj+0x316>
    1bda:	81 2f       	mov	r24, r17
 * for a read-only file, device is full, a corrupt file system or an I/O error.
 *
 */
size_t SdFile::write(const void* buf, uint16_t nbyte) {
  // convert void* to uint8_t*  -  must be before goto statements
  const uint8_t* src = reinterpret_cast<const uint8_t*>(buf);
    1bdc:	90 2f       	mov	r25, r16
    1bde:	9c 01       	movw	r18, r24
    1be0:	29 01       	movw	r4, r18
    1be2:	2d 80       	ldd	r2, Y+5	; 0x05
    1be4:	3e 80       	ldd	r3, Y+6	; 0x06
    1be6:	12 c1       	rjmp	.+548    	; 0x1e0c <_ZN6SdFile5writeEPKvj+0x2a6>
    1be8:	d6 01       	movw	r26, r12
  if ((flags_ & O_APPEND) && curPosition_ != fileSize_) {
    if (!seekEnd()) goto writeErrorReturn;
  }

  while (nToWrite > 0) {
    uint8_t blockOfCluster = vol_->blockOfCluster(curPosition_);
    1bea:	5b 96       	adiw	r26, 0x1b	; 27
    1bec:	ed 91       	ld	r30, X+
    1bee:	fc 91       	ld	r31, X
    1bf0:	5c 97       	sbiw	r26, 0x1c	; 28
    1bf2:	da 01       	movw	r26, r20
  uint16_t rootDirEntryCount_;  // number of entries in FAT16 root dir
  uint32_t rootDirStart_;       // root start block for FAT16, cluster for FAT32
  //----------------------------------------------------------------------------
  uint8_t allocContiguous(uint32_t count, uint32_t* curCluster);
  uint8_t blockOfCluster(uint32_t position) const {
          return (position >> 9) & (blocksPerCluster_ - 1);}
    1bf4:	c9 01       	movw	r24, r18
    1bf6:	19 e0       	ldi	r17, 0x09	; 9
    1bf8:	b6 95       	lsr	r27
    1bfa:	a7 95       	ror	r26
    1bfc:	97 95       	ror	r25
    1bfe:	87 95       	ror	r24
    1c00:	1a 95       	dec	r17
    1c02:	d1 f7       	brne	.-12     	; 0x1bf8 <_ZN6SdFile5writeEPKvj+0x92>
    1c04:	74 80       	ldd	r7, Z+4	; 0x04
    1c06:	7a 94       	dec	r7
    1c08:	78 22       	and	r7, r24
    1c0a:	7f ef       	ldi	r23, 0xFF	; 255
    uint16_t blockOffset = curPosition_ & 0X1FF;
    1c0c:	87 2e       	mov	r8, r23
    1c0e:	71 e0       	ldi	r23, 0x01	; 1
    1c10:	97 2e       	mov	r9, r23
    1c12:	82 22       	and	r8, r18
    1c14:	93 22       	and	r9, r19
    1c16:	77 20       	and	r7, r7
    if (blockOfCluster == 0 && blockOffset == 0) {
    1c18:	09 f0       	breq	.+2      	; 0x1c1c <_ZN6SdFile5writeEPKvj+0xb6>
    1c1a:	4c c0       	rjmp	.+152    	; 0x1cb4 <_ZN6SdFile5writeEPKvj+0x14e>
    1c1c:	81 14       	cp	r8, r1
    1c1e:	91 04       	cpc	r9, r1
    1c20:	09 f0       	breq	.+2      	; 0x1c24 <_ZN6SdFile5writeEPKvj+0xbe>
    1c22:	48 c0       	rjmp	.+144    	; 0x1cb4 <_ZN6SdFile5writeEPKvj+0x14e>
    1c24:	d6 01       	movw	r26, r12
      // start of new cluster
      if (curCluster_ == 0) {
    1c26:	16 96       	adiw	r26, 0x06	; 6
    1c28:	4d 91       	ld	r20, X+
    1c2a:	5d 91       	ld	r21, X+
    1c2c:	6d 91       	ld	r22, X+
    1c2e:	7c 91       	ld	r23, X
    1c30:	19 97       	sbiw	r26, 0x09	; 9
    1c32:	41 15       	cp	r20, r1
    1c34:	51 05       	cpc	r21, r1
    1c36:	61 05       	cpc	r22, r1
    1c38:	71 05       	cpc	r23, r1
    1c3a:	81 f4       	brne	.+32     	; 0x1c5c <_ZN6SdFile5writeEPKvj+0xf6>
    1c3c:	57 96       	adiw	r26, 0x17	; 23
        if (firstCluster_ == 0) {
    1c3e:	8d 91       	ld	r24, X+
    1c40:	9d 91       	ld	r25, X+
    1c42:	0d 90       	ld	r0, X+
    1c44:	bc 91       	ld	r27, X
    1c46:	a0 2d       	mov	r26, r0
    1c48:	00 97       	sbiw	r24, 0x00	; 0
    1c4a:	a1 05       	cpc	r26, r1
    1c4c:	b1 05       	cpc	r27, r1
    1c4e:	41 f1       	breq	.+80     	; 0x1ca0 <_ZN6SdFile5writeEPKvj+0x13a>
    1c50:	f6 01       	movw	r30, r12
          // allocate first cluster of file
          if (!addCluster()) goto writeErrorReturn;
        } else {
          curCluster_ = firstCluster_;
    1c52:	86 83       	std	Z+6, r24	; 0x06
    1c54:	97 83       	std	Z+7, r25	; 0x07
    1c56:	a0 87       	std	Z+8, r26	; 0x08
    1c58:	b1 87       	std	Z+9, r27	; 0x09
    1c5a:	2c c0       	rjmp	.+88     	; 0x1cb4 <_ZN6SdFile5writeEPKvj+0x14e>
    1c5c:	cf 01       	movw	r24, r30
        }
      } else {
        uint32_t next;
        if (!vol_->fatGet(curCluster_, &next)) return false;
    1c5e:	9e 01       	movw	r18, r28
    1c60:	2f 5f       	subi	r18, 0xFF	; 255
    1c62:	3f 4f       	sbci	r19, 0xFF	; 255
    1c64:	1a d5       	rcall	.+2612   	; 0x269a <_ZNK8SdVolume6fatGetEmPm>
    1c66:	88 23       	and	r24, r24
    1c68:	09 f4       	brne	.+2      	; 0x1c6c <_ZN6SdFile5writeEPKvj+0x106>
    1c6a:	0f c1       	rjmp	.+542    	; 0x1e8a <_ZN6SdFile5writeEPKvj+0x324>
    1c6c:	29 81       	ldd	r18, Y+1	; 0x01
    1c6e:	3a 81       	ldd	r19, Y+2	; 0x02
        if (vol_->isEOC(next)) {
    1c70:	4b 81       	ldd	r20, Y+3	; 0x03
    1c72:	5c 81       	ldd	r21, Y+4	; 0x04
    1c74:	d6 01       	movw	r26, r12
    1c76:	5b 96       	adiw	r26, 0x1b	; 27
  uint8_t fatPutEOC(uint32_t cluster) {
    return fatPut(cluster, 0x0FFFFFFF);
  }
  uint8_t freeChain(uint32_t cluster);
  uint8_t isEOC(uint32_t cluster) const {
    return  cluster >= (fatType_ == 16 ? FAT16EOC_MIN : FAT32EOC_MIN);
    1c78:	ed 91       	ld	r30, X+
    1c7a:	fc 91       	ld	r31, X
    1c7c:	5c 97       	sbiw	r26, 0x1c	; 28
    1c7e:	87 89       	ldd	r24, Z+23	; 0x17
    1c80:	80 31       	cpi	r24, 0x10	; 16
    1c82:	29 f0       	breq	.+10     	; 0x1c8e <_ZN6SdFile5writeEPKvj+0x128>
    1c84:	88 ef       	ldi	r24, 0xF8	; 248
    1c86:	9f ef       	ldi	r25, 0xFF	; 255
    1c88:	af ef       	ldi	r26, 0xFF	; 255
    1c8a:	bf e0       	ldi	r27, 0x0F	; 15
    1c8c:	04 c0       	rjmp	.+8      	; 0x1c96 <_ZN6SdFile5writeEPKvj+0x130>
    1c8e:	88 ef       	ldi	r24, 0xF8	; 248
    1c90:	9f ef       	ldi	r25, 0xFF	; 255
    1c92:	a0 e0       	ldi	r26, 0x00	; 0
    1c94:	b0 e0       	ldi	r27, 0x00	; 0
    1c96:	28 17       	cp	r18, r24
    1c98:	39 07       	cpc	r19, r25
    1c9a:	4a 07       	cpc	r20, r26
    1c9c:	5b 07       	cpc	r21, r27
    1c9e:	28 f0       	brcs	.+10     	; 0x1caa <_ZN6SdFile5writeEPKvj+0x144>
    1ca0:	c6 01       	movw	r24, r12
    1ca2:	3b df       	rcall	.-394    	; 0x1b1a <_ZN6SdFile10addClusterEv>
          // add cluster if at end of chain
          if (!addCluster()) goto writeErrorReturn;
    1ca4:	88 23       	and	r24, r24
    1ca6:	31 f4       	brne	.+12     	; 0x1cb4 <_ZN6SdFile5writeEPKvj+0x14e>
    1ca8:	e9 c0       	rjmp	.+466    	; 0x1e7c <_ZN6SdFile5writeEPKvj+0x316>
    1caa:	f6 01       	movw	r30, r12
    1cac:	26 83       	std	Z+6, r18	; 0x06
    1cae:	37 83       	std	Z+7, r19	; 0x07
        } else {
          curCluster_ = next;
    1cb0:	40 87       	std	Z+8, r20	; 0x08
    1cb2:	51 87       	std	Z+9, r21	; 0x09
    1cb4:	80 e0       	ldi	r24, 0x00	; 0
    1cb6:	92 e0       	ldi	r25, 0x02	; 2
    1cb8:	88 19       	sub	r24, r8
        }
      }
    }
    // max space in block
    uint16_t n = 512 - blockOffset;
    1cba:	99 09       	sbc	r25, r9
    1cbc:	51 01       	movw	r10, r2
    1cbe:	82 15       	cp	r24, r2
    1cc0:	93 05       	cpc	r25, r3
    1cc2:	08 f4       	brcc	.+2      	; 0x1cc6 <_ZN6SdFile5writeEPKvj+0x160>
    1cc4:	5c 01       	movw	r10, r24
    1cc6:	d6 01       	movw	r26, r12
    1cc8:	5b 96       	adiw	r26, 0x1b	; 27
    1cca:	ed 91       	ld	r30, X+

    // lesser of space and amount to write
    if (n > nToWrite) n = nToWrite;

    // block for data write
    uint32_t block = vol_->clusterStartBlock(curCluster_) + blockOfCluster;
    1ccc:	fc 91       	ld	r31, X
    1cce:	5c 97       	sbiw	r26, 0x1c	; 28
    1cd0:	16 96       	adiw	r26, 0x06	; 6
    1cd2:	ed 90       	ld	r14, X+
    1cd4:	fd 90       	ld	r15, X+
    1cd6:	0d 91       	ld	r16, X+
    1cd8:	1c 91       	ld	r17, X
    1cda:	19 97       	sbiw	r26, 0x09	; 9
    1cdc:	8e ef       	ldi	r24, 0xFE	; 254
    1cde:	9f ef       	ldi	r25, 0xFF	; 255
    1ce0:	af ef       	ldi	r26, 0xFF	; 255
    1ce2:	bf ef       	ldi	r27, 0xFF	; 255
    1ce4:	e8 0e       	add	r14, r24
    1ce6:	f9 1e       	adc	r15, r25
    1ce8:	0a 1f       	adc	r16, r26
    1cea:	1b 1f       	adc	r17, r27
    1cec:	05 84       	ldd	r0, Z+13	; 0x0d
    1cee:	04 c0       	rjmp	.+8      	; 0x1cf8 <_ZN6SdFile5writeEPKvj+0x192>
    1cf0:	ee 0c       	add	r14, r14
    1cf2:	ff 1c       	adc	r15, r15
    1cf4:	00 1f       	adc	r16, r16
    1cf6:	11 1f       	adc	r17, r17
    1cf8:	0a 94       	dec	r0
    1cfa:	d2 f7       	brpl	.-12     	; 0x1cf0 <_ZN6SdFile5writeEPKvj+0x18a>
    1cfc:	86 85       	ldd	r24, Z+14	; 0x0e
    1cfe:	97 85       	ldd	r25, Z+15	; 0x0f
    1d00:	a0 89       	ldd	r26, Z+16	; 0x10
    1d02:	b1 89       	ldd	r27, Z+17	; 0x11
    1d04:	e8 0e       	add	r14, r24
    1d06:	f9 1e       	adc	r15, r25
    1d08:	0a 1f       	adc	r16, r26
    1d0a:	1b 1f       	adc	r17, r27
    1d0c:	e7 0c       	add	r14, r7
    1d0e:	f1 1c       	adc	r15, r1
    1d10:	01 1d       	adc	r16, r1
    1d12:	11 1d       	adc	r17, r1
    1d14:	90 e0       	ldi	r25, 0x00	; 0
    1d16:	a9 16       	cp	r10, r25
    1d18:	92 e0       	ldi	r25, 0x02	; 2
    if (n == 512) {
    1d1a:	b9 06       	cpc	r11, r25
    1d1c:	49 f5       	brne	.+82     	; 0x1d70 <_ZN6SdFile5writeEPKvj+0x20a>
    1d1e:	80 91 28 02 	lds	r24, 0x0228
    1d22:	90 91 29 02 	lds	r25, 0x0229
      // full block - don't need to use cache
      // invalidate cache if block is in cache
      if (SdVolume::cacheBlockNumber_ == block) {
    1d26:	a0 91 2a 02 	lds	r26, 0x022A
    1d2a:	b0 91 2b 02 	lds	r27, 0x022B
    1d2e:	8e 15       	cp	r24, r14
    1d30:	9f 05       	cpc	r25, r15
    1d32:	a0 07       	cpc	r26, r16
    1d34:	b1 07       	cpc	r27, r17
    1d36:	61 f4       	brne	.+24     	; 0x1d50 <_ZN6SdFile5writeEPKvj+0x1ea>
    1d38:	8f ef       	ldi	r24, 0xFF	; 255
    1d3a:	9f ef       	ldi	r25, 0xFF	; 255
    1d3c:	af ef       	ldi	r26, 0xFF	; 255
        SdVolume::cacheBlockNumber_ = 0XFFFFFFFF;
    1d3e:	bf ef       	ldi	r27, 0xFF	; 255
    1d40:	80 93 28 02 	sts	0x0228, r24
    1d44:	90 93 29 02 	sts	0x0229, r25
    1d48:	a0 93 2a 02 	sts	0x022A, r26
    1d4c:	b0 93 2b 02 	sts	0x022B, r27
    1d50:	80 91 7a 05 	lds	r24, 0x057A
    1d54:	90 91 7b 05 	lds	r25, 0x057B
  uint8_t readData(uint32_t block, uint16_t offset,
    uint16_t count, uint8_t* dst) {
      return sdCard_->readData(block, offset, count, dst);
  }
  uint8_t writeBlock(uint32_t block, const uint8_t* dst) {
    return sdCard_->writeBlock(block, dst);
    1d58:	b8 01       	movw	r22, r16
    1d5a:	a7 01       	movw	r20, r14
    1d5c:	92 01       	movw	r18, r4
    1d5e:	de d8       	rcall	.-3652   	; 0xf1c <_ZN7Sd2Card10writeBlockEmPKh>
    1d60:	88 23       	and	r24, r24
    1d62:	09 f4       	brne	.+2      	; 0x1d66 <_ZN6SdFile5writeEPKvj+0x200>
    1d64:	8b c0       	rjmp	.+278    	; 0x1e7c <_ZN6SdFile5writeEPKvj+0x316>
    1d66:	a0 e0       	ldi	r26, 0x00	; 0
      }
      if (!vol_->writeBlock(block, src)) goto writeErrorReturn;
    1d68:	b2 e0       	ldi	r27, 0x02	; 2
    1d6a:	4a 0e       	add	r4, r26
    1d6c:	5b 1e       	adc	r5, r27
      src += 512;
    1d6e:	3c c0       	rjmp	.+120    	; 0x1de8 <_ZN6SdFile5writeEPKvj+0x282>
    1d70:	81 14       	cp	r8, r1
    1d72:	91 04       	cpc	r9, r1
    1d74:	01 f5       	brne	.+64     	; 0x1db6 <_ZN6SdFile5writeEPKvj+0x250>
    1d76:	f6 01       	movw	r30, r12
    } else {
      if (blockOffset == 0 && curPosition_ >= fileSize_) {
    1d78:	22 85       	ldd	r18, Z+10	; 0x0a
    1d7a:	33 85       	ldd	r19, Z+11	; 0x0b
    1d7c:	44 85       	ldd	r20, Z+12	; 0x0c
    1d7e:	55 85       	ldd	r21, Z+13	; 0x0d
    1d80:	83 89       	ldd	r24, Z+19	; 0x13
    1d82:	94 89       	ldd	r25, Z+20	; 0x14
    1d84:	a5 89       	ldd	r26, Z+21	; 0x15
    1d86:	b6 89       	ldd	r27, Z+22	; 0x16
    1d88:	28 17       	cp	r18, r24
    1d8a:	39 07       	cpc	r19, r25
    1d8c:	4a 07       	cpc	r20, r26
    1d8e:	5b 07       	cpc	r21, r27
    1d90:	90 f0       	brcs	.+36     	; 0x1db6 <_ZN6SdFile5writeEPKvj+0x250>
    1d92:	0d d2       	rcall	.+1050   	; 0x21ae <_ZN8SdVolume10cacheFlushEv>
    1d94:	88 23       	and	r24, r24
    1d96:	09 f4       	brne	.+2      	; 0x1d9a <_ZN6SdFile5writeEPKvj+0x234>
    1d98:	71 c0       	rjmp	.+226    	; 0x1e7c <_ZN6SdFile5writeEPKvj+0x316>
        // start of new block don't need to read into cache
        if (!SdVolume::cacheFlush()) goto writeErrorReturn;
    1d9a:	e0 92 28 02 	sts	0x0228, r14
    1d9e:	f0 92 29 02 	sts	0x0229, r15
    1da2:	00 93 2a 02 	sts	0x022A, r16
        SdVolume::cacheBlockNumber_ = block;
    1da6:	10 93 2b 02 	sts	0x022B, r17
    1daa:	80 91 7c 05 	lds	r24, 0x057C
    1dae:	81 60       	ori	r24, 0x01	; 1
    1db0:	80 93 7c 05 	sts	0x057C, r24
           return dataStartBlock_ + ((cluster - 2) << clusterSizeShift_);}
  uint32_t blockNumber(uint32_t cluster, uint32_t position) const {
           return clusterStartBlock(cluster) + blockOfCluster(position);}
  static uint8_t cacheFlush(void);
  static uint8_t cacheRawBlock(uint32_t blockNumber, uint8_t action);
  static void cacheSetDirty(void) {cacheDirty_ |= CACHE_FOR_WRITE;}
    1db4:	07 c0       	rjmp	.+14     	; 0x1dc4 <_ZN6SdFile5writeEPKvj+0x25e>
    1db6:	c8 01       	movw	r24, r16
    1db8:	b7 01       	movw	r22, r14
    1dba:	41 e0       	ldi	r20, 0x01	; 1
    1dbc:	56 d2       	rcall	.+1196   	; 0x226a <_ZN8SdVolume13cacheRawBlockEmh>
    1dbe:	88 23       	and	r24, r24
        SdVolume::cacheSetDirty();
      } else {
        // rewrite part of block
        if (!SdVolume::cacheRawBlock(block, SdVolume::CACHE_FOR_WRITE)) {
    1dc0:	09 f4       	brne	.+2      	; 0x1dc4 <_ZN6SdFile5writeEPKvj+0x25e>
    1dc2:	5c c0       	rjmp	.+184    	; 0x1e7c <_ZN6SdFile5writeEPKvj+0x316>
    1dc4:	94 01       	movw	r18, r8
    1dc6:	26 58       	subi	r18, 0x86	; 134
    1dc8:	3c 4f       	sbci	r19, 0xFC	; 252
    1dca:	a9 01       	movw	r20, r18
    1dcc:	4a 0d       	add	r20, r10
    1dce:	5b 1d       	adc	r21, r11
          goto writeErrorReturn;
        }
      }
      uint8_t* dst = SdVolume::cacheBuffer_.data + blockOffset;
    1dd0:	d2 01       	movw	r26, r4
    1dd2:	f9 01       	movw	r30, r18
    1dd4:	02 c0       	rjmp	.+4      	; 0x1dda <_ZN6SdFile5writeEPKvj+0x274>
      uint8_t* end = dst + n;
    1dd6:	8d 91       	ld	r24, X+
    1dd8:	81 93       	st	Z+, r24
    1dda:	e4 17       	cp	r30, r20
    1ddc:	f5 07       	cpc	r31, r21
    1dde:	d9 f7       	brne	.-10     	; 0x1dd6 <_ZN6SdFile5writeEPKvj+0x270>
    1de0:	e2 1b       	sub	r30, r18
      while (dst != end) *dst++ = *src++;
    1de2:	f3 0b       	sbc	r31, r19
    1de4:	4e 0e       	add	r4, r30
    1de6:	5f 1e       	adc	r5, r31
    1de8:	2a 18       	sub	r2, r10
    1dea:	3b 08       	sbc	r3, r11
    1dec:	95 01       	movw	r18, r10
    1dee:	40 e0       	ldi	r20, 0x00	; 0
    1df0:	50 e0       	ldi	r21, 0x00	; 0
    1df2:	f6 01       	movw	r30, r12
    }
    nToWrite -= n;
    1df4:	82 85       	ldd	r24, Z+10	; 0x0a
    1df6:	93 85       	ldd	r25, Z+11	; 0x0b
    curPosition_ += n;
    1df8:	a4 85       	ldd	r26, Z+12	; 0x0c
    1dfa:	b5 85       	ldd	r27, Z+13	; 0x0d
    1dfc:	82 0f       	add	r24, r18
    1dfe:	93 1f       	adc	r25, r19
    1e00:	a4 1f       	adc	r26, r20
    1e02:	b5 1f       	adc	r27, r21
    1e04:	82 87       	std	Z+10, r24	; 0x0a
    1e06:	93 87       	std	Z+11, r25	; 0x0b
    1e08:	a4 87       	std	Z+12, r26	; 0x0c
    1e0a:	b5 87       	std	Z+13, r27	; 0x0d
    1e0c:	d6 01       	movw	r26, r12
    1e0e:	1a 96       	adiw	r26, 0x0a	; 10
    1e10:	2d 91       	ld	r18, X+
    1e12:	3d 91       	ld	r19, X+
    1e14:	4d 91       	ld	r20, X+
    1e16:	5c 91       	ld	r21, X
    1e18:	1d 97       	sbiw	r26, 0x0d	; 13
    1e1a:	21 14       	cp	r2, r1
    1e1c:	31 04       	cpc	r3, r1
    1e1e:	09 f0       	breq	.+2      	; 0x1e22 <_ZN6SdFile5writeEPKvj+0x2bc>
    1e20:	e3 ce       	rjmp	.-570    	; 0x1be8 <_ZN6SdFile5writeEPKvj+0x82>
    1e22:	53 96       	adiw	r26, 0x13	; 19
    1e24:	8d 91       	ld	r24, X+
  // seek to end of file if append flag
  if ((flags_ & O_APPEND) && curPosition_ != fileSize_) {
    if (!seekEnd()) goto writeErrorReturn;
  }

  while (nToWrite > 0) {
    1e26:	9d 91       	ld	r25, X+
    1e28:	0d 90       	ld	r0, X+
    1e2a:	bc 91       	ld	r27, X
    1e2c:	a0 2d       	mov	r26, r0
      while (dst != end) *dst++ = *src++;
    }
    nToWrite -= n;
    curPosition_ += n;
  }
  if (curPosition_ > fileSize_) {
    1e2e:	82 17       	cp	r24, r18
    1e30:	93 07       	cpc	r25, r19
    1e32:	a4 07       	cpc	r26, r20
    1e34:	b5 07       	cpc	r27, r21
    1e36:	48 f4       	brcc	.+18     	; 0x1e4a <_ZN6SdFile5writeEPKvj+0x2e4>
    1e38:	f6 01       	movw	r30, r12
    1e3a:	23 8b       	std	Z+19, r18	; 0x13
    1e3c:	34 8b       	std	Z+20, r19	; 0x14
    1e3e:	45 8b       	std	Z+21, r20	; 0x15
    1e40:	56 8b       	std	Z+22, r21	; 0x16
    1e42:	84 81       	ldd	r24, Z+4	; 0x04
    // update fileSize and insure sync will update dir entry
    fileSize_ = curPosition_;
    1e44:	80 68       	ori	r24, 0x80	; 128
    1e46:	84 83       	std	Z+4, r24	; 0x04
    1e48:	11 c0       	rjmp	.+34     	; 0x1e6c <_ZN6SdFile5writeEPKvj+0x306>
    1e4a:	80 91 78 03 	lds	r24, 0x0378
    flags_ |= F_FILE_DIR_DIRTY;
    1e4e:	90 91 79 03 	lds	r25, 0x0379
    1e52:	89 2b       	or	r24, r25
    1e54:	59 f0       	breq	.+22     	; 0x1e6c <_ZN6SdFile5writeEPKvj+0x306>
  } else if (dateTime_ && nbyte) {
    1e56:	8d 81       	ldd	r24, Y+5	; 0x05
    1e58:	9e 81       	ldd	r25, Y+6	; 0x06
    1e5a:	89 2b       	or	r24, r25
    1e5c:	39 f0       	breq	.+14     	; 0x1e6c <_ZN6SdFile5writeEPKvj+0x306>
    1e5e:	d6 01       	movw	r26, r12
    1e60:	14 96       	adiw	r26, 0x04	; 4
    1e62:	8c 91       	ld	r24, X
    1e64:	14 97       	sbiw	r26, 0x04	; 4
    1e66:	80 68       	ori	r24, 0x80	; 128
    1e68:	14 96       	adiw	r26, 0x04	; 4
    // insure sync will update modified date and time
    flags_ |= F_FILE_DIR_DIRTY;
    1e6a:	8c 93       	st	X, r24
    1e6c:	f6 01       	movw	r30, r12
    1e6e:	84 81       	ldd	r24, Z+4	; 0x04
    1e70:	83 ff       	sbrs	r24, 3
    1e72:	0d c0       	rjmp	.+26     	; 0x1e8e <_ZN6SdFile5writeEPKvj+0x328>
    1e74:	c6 01       	movw	r24, r12
    1e76:	20 db       	rcall	.-2496   	; 0x14b8 <_ZN6SdFile4syncEv>
  }

  if (flags_ & O_SYNC) {
    1e78:	88 23       	and	r24, r24
    1e7a:	49 f4       	brne	.+18     	; 0x1e8e <_ZN6SdFile5writeEPKvj+0x328>
    1e7c:	81 e0       	ldi	r24, 0x01	; 1
    1e7e:	90 e0       	ldi	r25, 0x00	; 0
    1e80:	d6 01       	movw	r26, r12
    1e82:	13 96       	adiw	r26, 0x03	; 3
    1e84:	9c 93       	st	X, r25
    1e86:	8e 93       	st	-X, r24
    1e88:	12 97       	sbiw	r26, 0x02	; 2
  private:
    int write_error;
    size_t printNumber(unsigned long, uint8_t);
    size_t printFloat(double, uint8_t);
  protected:
    void setWriteError(int err = 1) { write_error = err; }
    1e8a:	1e 82       	std	Y+6, r1	; 0x06
    1e8c:	1d 82       	std	Y+5, r1	; 0x05
    1e8e:	8d 81       	ldd	r24, Y+5	; 0x05
    1e90:	9e 81       	ldd	r25, Y+6	; 0x06
    1e92:	26 96       	adiw	r28, 0x06	; 6
    1e94:	0f b6       	in	r0, 0x3f	; 63
    1e96:	f8 94       	cli
    1e98:	de bf       	out	0x3e, r29	; 62
    1e9a:	0f be       	out	0x3f, r0	; 63
 writeErrorReturn:
  // return for write error
  //writeError = true;
  setWriteError();
  return 0;
}
    1e9c:	cd bf       	out	0x3d, r28	; 61
    1e9e:	cf 91       	pop	r28
    1ea0:	df 91       	pop	r29
    1ea2:	1f 91       	pop	r17
    1ea4:	0f 91       	pop	r16
    1ea6:	ff 90       	pop	r15
    1ea8:	ef 90       	pop	r14
    1eaa:	df 90       	pop	r13
    1eac:	cf 90       	pop	r12
    1eae:	bf 90       	pop	r11
    1eb0:	af 90       	pop	r10
    1eb2:	9f 90       	pop	r9
    1eb4:	8f 90       	pop	r8
    1eb6:	7f 90       	pop	r7
    1eb8:	5f 90       	pop	r5
    1eba:	4f 90       	pop	r4
    1ebc:	3f 90       	pop	r3
    1ebe:	2f 90       	pop	r2
    1ec0:	08 95       	ret
    1ec2:	82 fd       	sbrc	r24, 2
    1ec4:	77 ce       	rjmp	.-786    	; 0x1bb4 <_ZN6SdFile5writeEPKvj+0x4e>
    1ec6:	89 ce       	rjmp	.-750    	; 0x1bda <_ZN6SdFile5writeEPKvj+0x74>

00001ec8 <_ZN6SdFile5writeEh>:
/**
 * Write a byte to a file. Required by the Arduino Print class.
 *
 * Use SdFile::writeError to check for errors.
 */
size_t SdFile::write(uint8_t b) {
    1ec8:	df 93       	push	r29
    1eca:	cf 93       	push	r28
    1ecc:	0f 92       	push	r0
    1ece:	cd b7       	in	r28, 0x3d	; 61
    1ed0:	de b7       	in	r29, 0x3e	; 62
    1ed2:	69 83       	std	Y+1, r22	; 0x01
  return write(&b, 1);
    1ed4:	be 01       	movw	r22, r28
    1ed6:	6f 5f       	subi	r22, 0xFF	; 255
    1ed8:	7f 4f       	sbci	r23, 0xFF	; 255
    1eda:	41 e0       	ldi	r20, 0x01	; 1
    1edc:	50 e0       	ldi	r21, 0x00	; 0
    1ede:	43 de       	rcall	.-890    	; 0x1b66 <_ZN6SdFile5writeEPKvj>
    1ee0:	0f 90       	pop	r0
}
    1ee2:	cf 91       	pop	r28
    1ee4:	df 91       	pop	r29
    1ee6:	08 95       	ret

00001ee8 <_ZN6SdFile13addDirClusterEv>:
  return true;
}
//------------------------------------------------------------------------------
// Add a cluster to a directory file and zero the cluster.
// return with first block of cluster in the cache
uint8_t SdFile::addDirCluster(void) {
    1ee8:	df 92       	push	r13
    1eea:	ef 92       	push	r14
    1eec:	ff 92       	push	r15
    1eee:	0f 93       	push	r16
    1ef0:	1f 93       	push	r17
    1ef2:	cf 93       	push	r28
    1ef4:	df 93       	push	r29
    1ef6:	ec 01       	movw	r28, r24
  if (!addCluster()) return false;
    1ef8:	10 de       	rcall	.-992    	; 0x1b1a <_ZN6SdFile10addClusterEv>
    1efa:	88 23       	and	r24, r24
    1efc:	09 f4       	brne	.+2      	; 0x1f00 <_ZN6SdFile13addDirClusterEv+0x18>
    1efe:	4d c0       	rjmp	.+154    	; 0x1f9a <_ZN6SdFile13addDirClusterEv+0xb2>
    1f00:	eb 8d       	ldd	r30, Y+27	; 0x1b

  // zero data in cluster insure first cluster is in cache
  uint32_t block = vol_->clusterStartBlock(curCluster_);
    1f02:	fc 8d       	ldd	r31, Y+28	; 0x1c
    1f04:	ee 80       	ldd	r14, Y+6	; 0x06
  //----------------------------------------------------------------------------
  uint8_t allocContiguous(uint32_t count, uint32_t* curCluster);
  uint8_t blockOfCluster(uint32_t position) const {
          return (position >> 9) & (blocksPerCluster_ - 1);}
  uint32_t clusterStartBlock(uint32_t cluster) const {
           return dataStartBlock_ + ((cluster - 2) << clusterSizeShift_);}
    1f06:	ff 80       	ldd	r15, Y+7	; 0x07
    1f08:	08 85       	ldd	r16, Y+8	; 0x08
    1f0a:	19 85       	ldd	r17, Y+9	; 0x09
    1f0c:	8e ef       	ldi	r24, 0xFE	; 254
    1f0e:	9f ef       	ldi	r25, 0xFF	; 255
    1f10:	af ef       	ldi	r26, 0xFF	; 255
    1f12:	bf ef       	ldi	r27, 0xFF	; 255
    1f14:	e8 0e       	add	r14, r24
    1f16:	f9 1e       	adc	r15, r25
    1f18:	0a 1f       	adc	r16, r26
    1f1a:	1b 1f       	adc	r17, r27
    1f1c:	05 84       	ldd	r0, Z+13	; 0x0d
    1f1e:	04 c0       	rjmp	.+8      	; 0x1f28 <_ZN6SdFile13addDirClusterEv+0x40>
    1f20:	ee 0c       	add	r14, r14
    1f22:	ff 1c       	adc	r15, r15
    1f24:	00 1f       	adc	r16, r16
    1f26:	11 1f       	adc	r17, r17
    1f28:	0a 94       	dec	r0
    1f2a:	d2 f7       	brpl	.-12     	; 0x1f20 <_ZN6SdFile13addDirClusterEv+0x38>
    1f2c:	86 85       	ldd	r24, Z+14	; 0x0e
    1f2e:	97 85       	ldd	r25, Z+15	; 0x0f
    1f30:	a0 89       	ldd	r26, Z+16	; 0x10
    1f32:	b1 89       	ldd	r27, Z+17	; 0x11
    1f34:	e8 0e       	add	r14, r24
    1f36:	f9 1e       	adc	r15, r25
    1f38:	0a 1f       	adc	r16, r26
    1f3a:	1b 1f       	adc	r17, r27
    1f3c:	d4 80       	ldd	r13, Z+4	; 0x04
  for (uint8_t i = vol_->blocksPerCluster_; i != 0; i--) {
    1f3e:	08 94       	sec
    if (!SdVolume::cacheZeroBlock(block + i - 1)) return false;
    1f40:	e1 08       	sbc	r14, r1
    1f42:	f1 08       	sbc	r15, r1
    1f44:	01 09       	sbc	r16, r1
    1f46:	11 09       	sbc	r17, r1
    1f48:	0a c0       	rjmp	.+20     	; 0x1f5e <_ZN6SdFile13addDirClusterEv+0x76>
    1f4a:	c8 01       	movw	r24, r16
    1f4c:	b7 01       	movw	r22, r14
    1f4e:	6d 0d       	add	r22, r13
    1f50:	71 1d       	adc	r23, r1
    1f52:	81 1d       	adc	r24, r1
    1f54:	91 1d       	adc	r25, r1
    1f56:	66 d1       	rcall	.+716    	; 0x2224 <_ZN8SdVolume14cacheZeroBlockEm>
    1f58:	88 23       	and	r24, r24
    1f5a:	f9 f0       	breq	.+62     	; 0x1f9a <_ZN6SdFile13addDirClusterEv+0xb2>
    1f5c:	da 94       	dec	r13
    1f5e:	dd 20       	and	r13, r13
uint8_t SdFile::addDirCluster(void) {
  if (!addCluster()) return false;

  // zero data in cluster insure first cluster is in cache
  uint32_t block = vol_->clusterStartBlock(curCluster_);
  for (uint8_t i = vol_->blocksPerCluster_; i != 0; i--) {
    1f60:	a1 f7       	brne	.-24     	; 0x1f4a <_ZN6SdFile13addDirClusterEv+0x62>
    1f62:	eb 8d       	ldd	r30, Y+27	; 0x1b
    1f64:	fc 8d       	ldd	r31, Y+28	; 0x1c
    if (!SdVolume::cacheZeroBlock(block + i - 1)) return false;
  }
  // Increase directory file size by cluster size
  fileSize_ += 512UL << vol_->clusterSizeShift_;
    1f66:	20 e0       	ldi	r18, 0x00	; 0
    1f68:	32 e0       	ldi	r19, 0x02	; 2
    1f6a:	40 e0       	ldi	r20, 0x00	; 0
    1f6c:	50 e0       	ldi	r21, 0x00	; 0
    1f6e:	05 84       	ldd	r0, Z+13	; 0x0d
    1f70:	04 c0       	rjmp	.+8      	; 0x1f7a <_ZN6SdFile13addDirClusterEv+0x92>
    1f72:	22 0f       	add	r18, r18
    1f74:	33 1f       	adc	r19, r19
    1f76:	44 1f       	adc	r20, r20
    1f78:	55 1f       	adc	r21, r21
    1f7a:	0a 94       	dec	r0
    1f7c:	d2 f7       	brpl	.-12     	; 0x1f72 <_ZN6SdFile13addDirClusterEv+0x8a>
    1f7e:	8b 89       	ldd	r24, Y+19	; 0x13
    1f80:	9c 89       	ldd	r25, Y+20	; 0x14
    1f82:	ad 89       	ldd	r26, Y+21	; 0x15
    1f84:	be 89       	ldd	r27, Y+22	; 0x16
    1f86:	82 0f       	add	r24, r18
    1f88:	93 1f       	adc	r25, r19
    1f8a:	a4 1f       	adc	r26, r20
    1f8c:	b5 1f       	adc	r27, r21
    1f8e:	8b 8b       	std	Y+19, r24	; 0x13
    1f90:	9c 8b       	std	Y+20, r25	; 0x14
    1f92:	ad 8b       	std	Y+21, r26	; 0x15
    1f94:	be 8b       	std	Y+22, r27	; 0x16
    1f96:	81 e0       	ldi	r24, 0x01	; 1
    1f98:	01 c0       	rjmp	.+2      	; 0x1f9c <_ZN6SdFile13addDirClusterEv+0xb4>
    1f9a:	80 e0       	ldi	r24, 0x00	; 0
    1f9c:	df 91       	pop	r29
  return true;
    1f9e:	cf 91       	pop	r28
}
    1fa0:	1f 91       	pop	r17
    1fa2:	0f 91       	pop	r16
    1fa4:	ff 90       	pop	r15
    1fa6:	ef 90       	pop	r14
    1fa8:	df 90       	pop	r13
    1faa:	08 95       	ret

00001fac <_ZN6SdFile4openEPS_PKch>:
 * the value zero, false, is returned for failure.
 * Reasons for failure include this SdFile is already open, \a difFile is not
 * a directory, \a fileName is invalid, the file does not exist
 * or can't be opened in the access mode specified by oflag.
 */
uint8_t SdFile::open(SdFile* dirFile, const char* fileName, uint8_t oflag) {
    1fac:	6f 92       	push	r6
    1fae:	7f 92       	push	r7
    1fb0:	8f 92       	push	r8
    1fb2:	9f 92       	push	r9
    1fb4:	af 92       	push	r10
    1fb6:	bf 92       	push	r11
    1fb8:	cf 92       	push	r12
    1fba:	df 92       	push	r13
    1fbc:	ef 92       	push	r14
    1fbe:	ff 92       	push	r15
    1fc0:	0f 93       	push	r16
    1fc2:	1f 93       	push	r17
    1fc4:	df 93       	push	r29
    1fc6:	cf 93       	push	r28
    1fc8:	cd b7       	in	r28, 0x3d	; 61
    1fca:	de b7       	in	r29, 0x3e	; 62
    1fcc:	2b 97       	sbiw	r28, 0x0b	; 11
    1fce:	0f b6       	in	r0, 0x3f	; 63
    1fd0:	f8 94       	cli
    1fd2:	de bf       	out	0x3e, r29	; 62
    1fd4:	0f be       	out	0x3f, r0	; 63
    1fd6:	cd bf       	out	0x3d, r28	; 61
    1fd8:	5c 01       	movw	r10, r24
    1fda:	6b 01       	movw	r12, r22
    1fdc:	82 2e       	mov	r8, r18
  uint8_t dname[11];
  dir_t* p;

  // error if already open
  if (isOpen())return false;
    1fde:	dc 01       	movw	r26, r24
    1fe0:	15 96       	adiw	r26, 0x05	; 5
    1fe2:	8c 91       	ld	r24, X
    1fe4:	88 23       	and	r24, r24
    1fe6:	09 f0       	breq	.+2      	; 0x1fea <_ZN6SdFile4openEPS_PKch+0x3e>
    1fe8:	cc c0       	rjmp	.+408    	; 0x2182 <_ZN6SdFile4openEPS_PKch+0x1d6>

  if (!make83Name(fileName, dname)) return false;
    1fea:	ca 01       	movw	r24, r20
    1fec:	8e 01       	movw	r16, r28
    1fee:	0f 5f       	subi	r16, 0xFF	; 255
    1ff0:	1f 4f       	sbci	r17, 0xFF	; 255
    1ff2:	b8 01       	movw	r22, r16
    1ff4:	5b d9       	rcall	.-3402   	; 0x12ac <_ZN6SdFile10make83NameEPKcPh>
    1ff6:	88 23       	and	r24, r24
    1ff8:	09 f4       	brne	.+2      	; 0x1ffc <_ZN6SdFile4openEPS_PKch+0x50>
    1ffa:	c3 c0       	rjmp	.+390    	; 0x2182 <_ZN6SdFile4openEPS_PKch+0x1d6>
    1ffc:	f6 01       	movw	r30, r12
  vol_ = dirFile->vol_;
    1ffe:	83 8d       	ldd	r24, Z+27	; 0x1b
    2000:	94 8d       	ldd	r25, Z+28	; 0x1c
    2002:	d5 01       	movw	r26, r10
    2004:	5c 96       	adiw	r26, 0x1c	; 28
    2006:	9c 93       	st	X, r25
    2008:	8e 93       	st	-X, r24
    200a:	5b 97       	sbiw	r26, 0x1b	; 27
    200c:	16 82       	std	Z+6, r1	; 0x06
  int8_t readDir(dir_t* dir);
  static uint8_t remove(SdFile* dirFile, const char* fileName);
  uint8_t remove(void);
  /** Set the file's current position to zero. */
  void rewind(void) {
    curPosition_ = curCluster_ = 0;
    200e:	17 82       	std	Z+7, r1	; 0x07
    2010:	10 86       	std	Z+8, r1	; 0x08
    2012:	11 86       	std	Z+9, r1	; 0x09
    2014:	d6 01       	movw	r26, r12
    2016:	1a 96       	adiw	r26, 0x0a	; 10
    2018:	1d 92       	st	X+, r1
    201a:	1d 92       	st	X+, r1
    201c:	1d 92       	st	X+, r1
    201e:	1c 92       	st	X, r1
    2020:	1d 97       	sbiw	r26, 0x0d	; 13
    2022:	99 24       	eor	r9, r9
    2024:	38 01       	movw	r6, r16
        dirIndex_ = index;
        dirBlock_ = SdVolume::cacheBlockNumber_;
      }
      // done if no entries follow
      if (p->name[0] == DIR_NAME_FREE) break;
    } else if (!memcmp(dname, p->name, 11)) {
    2026:	40 c0       	rjmp	.+128    	; 0x20a8 <_ZN6SdFile4openEPS_PKch+0xfc>
    2028:	c6 01       	movw	r24, r12
  uint8_t emptyFound = false;

  // search for file
  while (dirFile->curPosition_ < dirFile->fileSize_) {
    uint8_t index = 0XF & (dirFile->curPosition_ >> 5);
    p = dirFile->readDirCache();
    202a:	72 dc       	rcall	.-1820   	; 0x1910 <_ZN6SdFile12readDirCacheEv>
    202c:	fc 01       	movw	r30, r24
    202e:	00 97       	sbiw	r24, 0x00	; 0
    2030:	09 f4       	brne	.+2      	; 0x2034 <_ZN6SdFile4openEPS_PKch+0x88>
    if (p == NULL) return false;
    2032:	a7 c0       	rjmp	.+334    	; 0x2182 <_ZN6SdFile4openEPS_PKch+0x1d6>
    2034:	85 e0       	ldi	r24, 0x05	; 5
    2036:	16 95       	lsr	r17
  // bool for empty entry found
  uint8_t emptyFound = false;

  // search for file
  while (dirFile->curPosition_ < dirFile->fileSize_) {
    uint8_t index = 0XF & (dirFile->curPosition_ >> 5);
    2038:	07 95       	ror	r16
    203a:	f7 94       	ror	r15
    203c:	e7 94       	ror	r14
    203e:	8a 95       	dec	r24
    2040:	d1 f7       	brne	.-12     	; 0x2036 <_ZN6SdFile4openEPS_PKch+0x8a>
    2042:	1e 2d       	mov	r17, r14
    2044:	1f 70       	andi	r17, 0x0F	; 15
    2046:	80 81       	ld	r24, Z
    2048:	88 23       	and	r24, r24
    p = dirFile->readDirCache();
    if (p == NULL) return false;

    if (p->name[0] == DIR_NAME_FREE || p->name[0] == DIR_NAME_DELETED) {
    204a:	11 f0       	breq	.+4      	; 0x2050 <_ZN6SdFile4openEPS_PKch+0xa4>
    204c:	85 3e       	cpi	r24, 0xE5	; 229
    204e:	d1 f4       	brne	.+52     	; 0x2084 <_ZN6SdFile4openEPS_PKch+0xd8>
    2050:	99 20       	and	r9, r9
    2052:	91 f4       	brne	.+36     	; 0x2078 <_ZN6SdFile4openEPS_PKch+0xcc>
      // remember first empty slot
      if (!emptyFound) {
    2054:	d5 01       	movw	r26, r10
    2056:	52 96       	adiw	r26, 0x12	; 18
        emptyFound = true;
        dirIndex_ = index;
    2058:	1c 93       	st	X, r17
    205a:	52 97       	sbiw	r26, 0x12	; 18
    205c:	20 91 28 02 	lds	r18, 0x0228
        dirBlock_ = SdVolume::cacheBlockNumber_;
    2060:	30 91 29 02 	lds	r19, 0x0229
    2064:	40 91 2a 02 	lds	r20, 0x022A
    2068:	50 91 2b 02 	lds	r21, 0x022B
    206c:	1e 96       	adiw	r26, 0x0e	; 14
    206e:	2d 93       	st	X+, r18
    2070:	3d 93       	st	X+, r19
    2072:	4d 93       	st	X+, r20
    2074:	5c 93       	st	X, r21
    2076:	51 97       	sbiw	r26, 0x11	; 17
    2078:	80 81       	ld	r24, Z
    207a:	88 23       	and	r24, r24
      }
      // done if no entries follow
      if (p->name[0] == DIR_NAME_FREE) break;
    207c:	99 f4       	brne	.+38     	; 0x20a4 <_ZN6SdFile4openEPS_PKch+0xf8>
    207e:	99 24       	eor	r9, r9
    2080:	93 94       	inc	r9
    2082:	21 c0       	rjmp	.+66     	; 0x20c6 <_ZN6SdFile4openEPS_PKch+0x11a>
    2084:	c3 01       	movw	r24, r6
    2086:	bf 01       	movw	r22, r30
    } else if (!memcmp(dname, p->name, 11)) {
    2088:	4b e0       	ldi	r20, 0x0B	; 11
    208a:	50 e0       	ldi	r21, 0x00	; 0
    208c:	0e 94 96 00 	call	0x12c	; 0x12c <memcmp>
    2090:	00 97       	sbiw	r24, 0x00	; 0
    2092:	51 f4       	brne	.+20     	; 0x20a8 <_ZN6SdFile4openEPS_PKch+0xfc>
    2094:	88 2d       	mov	r24, r8
    2096:	80 73       	andi	r24, 0x30	; 48
      // don't open existing file if O_CREAT and O_EXCL
      if ((oflag & (O_CREAT | O_EXCL)) == (O_CREAT | O_EXCL)) return false;
    2098:	80 33       	cpi	r24, 0x30	; 48
    209a:	09 f4       	brne	.+2      	; 0x209e <_ZN6SdFile4openEPS_PKch+0xf2>
    209c:	72 c0       	rjmp	.+228    	; 0x2182 <_ZN6SdFile4openEPS_PKch+0x1d6>
    209e:	c5 01       	movw	r24, r10
    20a0:	61 2f       	mov	r22, r17

      // open found file
      return openCachedEntry(0XF & index, oflag);
    20a2:	6c c0       	rjmp	.+216    	; 0x217c <_ZN6SdFile4openEPS_PKch+0x1d0>
    20a4:	99 24       	eor	r9, r9
    20a6:	93 94       	inc	r9
    20a8:	f6 01       	movw	r30, r12
    20aa:	e2 84       	ldd	r14, Z+10	; 0x0a

  // bool for empty entry found
  uint8_t emptyFound = false;

  // search for file
  while (dirFile->curPosition_ < dirFile->fileSize_) {
    20ac:	f3 84       	ldd	r15, Z+11	; 0x0b
    20ae:	04 85       	ldd	r16, Z+12	; 0x0c
    20b0:	15 85       	ldd	r17, Z+13	; 0x0d
    20b2:	83 89       	ldd	r24, Z+19	; 0x13
    20b4:	94 89       	ldd	r25, Z+20	; 0x14
    20b6:	a5 89       	ldd	r26, Z+21	; 0x15
    20b8:	b6 89       	ldd	r27, Z+22	; 0x16
    20ba:	e8 16       	cp	r14, r24
    20bc:	f9 06       	cpc	r15, r25
    20be:	0a 07       	cpc	r16, r26
    20c0:	1b 07       	cpc	r17, r27
    20c2:	08 f4       	brcc	.+2      	; 0x20c6 <_ZN6SdFile4openEPS_PKch+0x11a>
    20c4:	b1 cf       	rjmp	.-158    	; 0x2028 <_ZN6SdFile4openEPS_PKch+0x7c>
    20c6:	88 2d       	mov	r24, r8
    20c8:	82 71       	andi	r24, 0x12	; 18
      // open found file
      return openCachedEntry(0XF & index, oflag);
    }
  }
  // only create file if O_CREAT and O_WRITE
  if ((oflag & (O_CREAT | O_WRITE)) != (O_CREAT | O_WRITE)) return false;
    20ca:	82 31       	cpi	r24, 0x12	; 18
    20cc:	09 f0       	breq	.+2      	; 0x20d0 <_ZN6SdFile4openEPS_PKch+0x124>
    20ce:	59 c0       	rjmp	.+178    	; 0x2182 <_ZN6SdFile4openEPS_PKch+0x1d6>
    20d0:	99 20       	and	r9, r9
    20d2:	39 f0       	breq	.+14     	; 0x20e2 <_ZN6SdFile4openEPS_PKch+0x136>

  // cache found slot or add cluster if end of file
  if (emptyFound) {
    20d4:	c5 01       	movw	r24, r10
    20d6:	61 e0       	ldi	r22, 0x01	; 1
    p = cacheDirEntry(SdVolume::CACHE_FOR_WRITE);
    20d8:	d3 d9       	rcall	.-3162   	; 0x1480 <_ZN6SdFile13cacheDirEntryEh>
    20da:	8c 01       	movw	r16, r24
    20dc:	00 97       	sbiw	r24, 0x00	; 0
    20de:	81 f4       	brne	.+32     	; 0x2100 <_ZN6SdFile4openEPS_PKch+0x154>
    20e0:	50 c0       	rjmp	.+160    	; 0x2182 <_ZN6SdFile4openEPS_PKch+0x1d6>
    if (!p) return false;
    20e2:	d6 01       	movw	r26, r12
    20e4:	15 96       	adiw	r26, 0x05	; 5
    20e6:	8c 91       	ld	r24, X
  } else {
    if (dirFile->type_ == FAT_FILE_TYPE_ROOT16) return false;
    20e8:	82 30       	cpi	r24, 0x02	; 2
    20ea:	09 f4       	brne	.+2      	; 0x20ee <_ZN6SdFile4openEPS_PKch+0x142>
    20ec:	4a c0       	rjmp	.+148    	; 0x2182 <_ZN6SdFile4openEPS_PKch+0x1d6>
    20ee:	c6 01       	movw	r24, r12
    20f0:	fb de       	rcall	.-522    	; 0x1ee8 <_ZN6SdFile13addDirClusterEv>
    20f2:	88 23       	and	r24, r24

    // add and zero cluster for dirFile - first cluster is in cache for write
    if (!dirFile->addDirCluster()) return false;
    20f4:	09 f4       	brne	.+2      	; 0x20f8 <_ZN6SdFile4openEPS_PKch+0x14c>
    20f6:	45 c0       	rjmp	.+138    	; 0x2182 <_ZN6SdFile4openEPS_PKch+0x1d6>
    20f8:	f5 01       	movw	r30, r10
    20fa:	12 8a       	std	Z+18, r1	; 0x12
    20fc:	0a e7       	ldi	r16, 0x7A	; 122
    20fe:	13 e0       	ldi	r17, 0x03	; 3

    // use first entry in cluster
    dirIndex_ = 0;
    2100:	80 e2       	ldi	r24, 0x20	; 32
    2102:	d8 01       	movw	r26, r16
    2104:	1d 92       	st	X+, r1
    2106:	8a 95       	dec	r24
    p = SdVolume::cacheBuffer_.dir;
  }
  // initialize as empty file
  memset(p, 0, sizeof(dir_t));
    2108:	e9 f7       	brne	.-6      	; 0x2104 <_ZN6SdFile4openEPS_PKch+0x158>
    210a:	d8 01       	movw	r26, r16
    210c:	fe 01       	movw	r30, r28
    210e:	31 96       	adiw	r30, 0x01	; 1
    2110:	8b e0       	ldi	r24, 0x0B	; 11
  memcpy(p->name, dname, 11);
    2112:	01 90       	ld	r0, Z+
    2114:	0d 92       	st	X+, r0
    2116:	81 50       	subi	r24, 0x01	; 1
    2118:	e1 f7       	brne	.-8      	; 0x2112 <_ZN6SdFile4openEPS_PKch+0x166>
    211a:	e0 91 78 03 	lds	r30, 0x0378
    211e:	f0 91 79 03 	lds	r31, 0x0379

  // set timestamps
  if (dateTime_) {
    2122:	30 97       	sbiw	r30, 0x00	; 0
    2124:	39 f0       	breq	.+14     	; 0x2134 <_ZN6SdFile4openEPS_PKch+0x188>
    2126:	b8 01       	movw	r22, r16
    2128:	62 5f       	subi	r22, 0xF2	; 242
    212a:	7f 4f       	sbci	r23, 0xFF	; 255
    212c:	c8 01       	movw	r24, r16
    // call user function
    dateTime_(&p->creationDate, &p->creationTime);
    212e:	40 96       	adiw	r24, 0x10	; 16
    2130:	09 95       	icall
    2132:	09 c0       	rjmp	.+18     	; 0x2146 <_ZN6SdFile4openEPS_PKch+0x19a>
    2134:	81 e2       	ldi	r24, 0x21	; 33
    2136:	98 e2       	ldi	r25, 0x28	; 40
    2138:	f8 01       	movw	r30, r16
    213a:	91 8b       	std	Z+17, r25	; 0x11
  } else {
    // use default date/time
    p->creationDate = FAT_DEFAULT_DATE;
    213c:	80 8b       	std	Z+16, r24	; 0x10
    213e:	80 e0       	ldi	r24, 0x00	; 0
    2140:	98 e0       	ldi	r25, 0x08	; 8
    2142:	97 87       	std	Z+15, r25	; 0x0f
    2144:	86 87       	std	Z+14, r24	; 0x0e
    p->creationTime = FAT_DEFAULT_TIME;
    2146:	d8 01       	movw	r26, r16
    2148:	50 96       	adiw	r26, 0x10	; 16
    214a:	8d 91       	ld	r24, X+
    214c:	9c 91       	ld	r25, X
  }
  p->lastAccessDate = p->creationDate;
    214e:	51 97       	sbiw	r26, 0x11	; 17
    2150:	53 96       	adiw	r26, 0x13	; 19
    2152:	9c 93       	st	X, r25
    2154:	8e 93       	st	-X, r24
    2156:	52 97       	sbiw	r26, 0x12	; 18
    2158:	59 96       	adiw	r26, 0x19	; 25
    215a:	9c 93       	st	X, r25
    215c:	8e 93       	st	-X, r24
    215e:	58 97       	sbiw	r26, 0x18	; 24
  p->lastWriteDate = p->creationDate;
    2160:	1e 96       	adiw	r26, 0x0e	; 14
    2162:	8d 91       	ld	r24, X+
    2164:	9c 91       	ld	r25, X
    2166:	1f 97       	sbiw	r26, 0x0f	; 15
  p->lastWriteTime = p->creationTime;
    2168:	57 96       	adiw	r26, 0x17	; 23
    216a:	9c 93       	st	X, r25
    216c:	8e 93       	st	-X, r24
    216e:	56 97       	sbiw	r26, 0x16	; 22
    2170:	1e d0       	rcall	.+60     	; 0x21ae <_ZN8SdVolume10cacheFlushEv>
    2172:	88 23       	and	r24, r24
    2174:	31 f0       	breq	.+12     	; 0x2182 <_ZN6SdFile4openEPS_PKch+0x1d6>
    2176:	c5 01       	movw	r24, r10

  // force write of entry to SD
  if (!SdVolume::cacheFlush()) return false;
    2178:	f5 01       	movw	r30, r10
    217a:	62 89       	ldd	r22, Z+18	; 0x12
    217c:	48 2d       	mov	r20, r8
    217e:	61 dc       	rcall	.-1854   	; 0x1a42 <_ZN6SdFile15openCachedEntryEhh>

  // open entry in cache
  return openCachedEntry(dirIndex_, oflag);
    2180:	01 c0       	rjmp	.+2      	; 0x2184 <_ZN6SdFile4openEPS_PKch+0x1d8>
    2182:	80 e0       	ldi	r24, 0x00	; 0
    2184:	2b 96       	adiw	r28, 0x0b	; 11
    2186:	0f b6       	in	r0, 0x3f	; 63
    2188:	f8 94       	cli
    218a:	de bf       	out	0x3e, r29	; 62
    218c:	0f be       	out	0x3f, r0	; 63
    218e:	cd bf       	out	0x3d, r28	; 61
}
    2190:	cf 91       	pop	r28
    2192:	df 91       	pop	r29
    2194:	1f 91       	pop	r17
    2196:	0f 91       	pop	r16
    2198:	ff 90       	pop	r15
    219a:	ef 90       	pop	r14
    219c:	df 90       	pop	r13
    219e:	cf 90       	pop	r12
    21a0:	bf 90       	pop	r11
    21a2:	af 90       	pop	r10
    21a4:	9f 90       	pop	r9
    21a6:	8f 90       	pop	r8
    21a8:	7f 90       	pop	r7
    21aa:	6f 90       	pop	r6
    21ac:	08 95       	ret

000021ae <_ZN8SdVolume10cacheFlushEv>:

  return true;
}
//------------------------------------------------------------------------------
uint8_t SdVolume::cacheFlush(void) {
  if (cacheDirty_) {
    21ae:	80 91 7c 05 	lds	r24, 0x057C
    21b2:	88 23       	and	r24, r24
    21b4:	99 f1       	breq	.+102    	; 0x221c <_ZN8SdVolume10cacheFlushEv+0x6e>
    if (!sdCard_->writeBlock(cacheBlockNumber_, cacheBuffer_.data)) {
    21b6:	40 91 28 02 	lds	r20, 0x0228
    21ba:	50 91 29 02 	lds	r21, 0x0229
    21be:	60 91 2a 02 	lds	r22, 0x022A
    21c2:	70 91 2b 02 	lds	r23, 0x022B
    21c6:	80 91 7a 05 	lds	r24, 0x057A
    21ca:	90 91 7b 05 	lds	r25, 0x057B
    21ce:	2a e7       	ldi	r18, 0x7A	; 122
    21d0:	33 e0       	ldi	r19, 0x03	; 3
    21d2:	0e 94 8e 07 	call	0xf1c	; 0xf1c <_ZN7Sd2Card10writeBlockEmPKh>
    21d6:	88 23       	and	r24, r24
    21d8:	19 f1       	breq	.+70     	; 0x2220 <_ZN8SdVolume10cacheFlushEv+0x72>
      return false;
    }
    // mirror FAT tables
    if (cacheMirrorBlock_) {
    21da:	40 91 7d 05 	lds	r20, 0x057D
    21de:	50 91 7e 05 	lds	r21, 0x057E
    21e2:	60 91 7f 05 	lds	r22, 0x057F
    21e6:	70 91 80 05 	lds	r23, 0x0580
    21ea:	41 15       	cp	r20, r1
    21ec:	51 05       	cpc	r21, r1
    21ee:	61 05       	cpc	r22, r1
    21f0:	71 05       	cpc	r23, r1
    21f2:	91 f0       	breq	.+36     	; 0x2218 <_ZN8SdVolume10cacheFlushEv+0x6a>
      if (!sdCard_->writeBlock(cacheMirrorBlock_, cacheBuffer_.data)) {
    21f4:	80 91 7a 05 	lds	r24, 0x057A
    21f8:	90 91 7b 05 	lds	r25, 0x057B
    21fc:	2a e7       	ldi	r18, 0x7A	; 122
    21fe:	33 e0       	ldi	r19, 0x03	; 3
    2200:	0e 94 8e 07 	call	0xf1c	; 0xf1c <_ZN7Sd2Card10writeBlockEmPKh>
    2204:	88 23       	and	r24, r24
    2206:	61 f0       	breq	.+24     	; 0x2220 <_ZN8SdVolume10cacheFlushEv+0x72>
        return false;
      }
      cacheMirrorBlock_ = 0;
    2208:	10 92 7d 05 	sts	0x057D, r1
    220c:	10 92 7e 05 	sts	0x057E, r1
    2210:	10 92 7f 05 	sts	0x057F, r1
    2214:	10 92 80 05 	sts	0x0580, r1
    }
    cacheDirty_ = 0;
    2218:	10 92 7c 05 	sts	0x057C, r1
    221c:	81 e0       	ldi	r24, 0x01	; 1
    221e:	08 95       	ret
    2220:	80 e0       	ldi	r24, 0x00	; 0
  }
  return true;
}
    2222:	08 95       	ret

00002224 <_ZN8SdVolume14cacheZeroBlockEm>:
  cacheDirty_ |= action;
  return true;
}
//------------------------------------------------------------------------------
// cache a zero block for blockNumber
uint8_t SdVolume::cacheZeroBlock(uint32_t blockNumber) {
    2224:	ef 92       	push	r14
    2226:	ff 92       	push	r15
    2228:	0f 93       	push	r16
    222a:	1f 93       	push	r17
    222c:	7b 01       	movw	r14, r22
    222e:	8c 01       	movw	r16, r24
  if (!cacheFlush()) return false;
    2230:	be df       	rcall	.-132    	; 0x21ae <_ZN8SdVolume10cacheFlushEv>
    2232:	88 23       	and	r24, r24
    2234:	a9 f0       	breq	.+42     	; 0x2260 <_ZN8SdVolume14cacheZeroBlockEm+0x3c>
    2236:	ea e7       	ldi	r30, 0x7A	; 122
    2238:	f3 e0       	ldi	r31, 0x03	; 3
    223a:	11 92       	st	Z+, r1

  // loop take less flash than memset(cacheBuffer_.data, 0, 512);
  for (uint16_t i = 0; i < 512; i++) {
    cacheBuffer_.data[i] = 0;
    223c:	85 e0       	ldi	r24, 0x05	; 5
// cache a zero block for blockNumber
uint8_t SdVolume::cacheZeroBlock(uint32_t blockNumber) {
  if (!cacheFlush()) return false;

  // loop take less flash than memset(cacheBuffer_.data, 0, 512);
  for (uint16_t i = 0; i < 512; i++) {
    223e:	ea 37       	cpi	r30, 0x7A	; 122
    2240:	f8 07       	cpc	r31, r24
    2242:	d9 f7       	brne	.-10     	; 0x223a <_ZN8SdVolume14cacheZeroBlockEm+0x16>
    2244:	e0 92 28 02 	sts	0x0228, r14
    cacheBuffer_.data[i] = 0;
  }
  cacheBlockNumber_ = blockNumber;
    2248:	f0 92 29 02 	sts	0x0229, r15
    224c:	00 93 2a 02 	sts	0x022A, r16
    2250:	10 93 2b 02 	sts	0x022B, r17
    2254:	80 91 7c 05 	lds	r24, 0x057C
           return dataStartBlock_ + ((cluster - 2) << clusterSizeShift_);}
  uint32_t blockNumber(uint32_t cluster, uint32_t position) const {
           return clusterStartBlock(cluster) + blockOfCluster(position);}
  static uint8_t cacheFlush(void);
  static uint8_t cacheRawBlock(uint32_t blockNumber, uint8_t action);
  static void cacheSetDirty(void) {cacheDirty_ |= CACHE_FOR_WRITE;}
    2258:	81 60       	ori	r24, 0x01	; 1
    225a:	80 93 7c 05 	sts	0x057C, r24
    225e:	81 e0       	ldi	r24, 0x01	; 1
    2260:	1f 91       	pop	r17
  cacheSetDirty();
  return true;
}
    2262:	0f 91       	pop	r16
    2264:	ff 90       	pop	r15
    2266:	ef 90       	pop	r14
    2268:	08 95       	ret

0000226a <_ZN8SdVolume13cacheRawBlockEmh>:
    cacheDirty_ = 0;
  }
  return true;
}
//------------------------------------------------------------------------------
uint8_t SdVolume::cacheRawBlock(uint32_t blockNumber, uint8_t action) {
    226a:	df 92       	push	r13
    226c:	ef 92       	push	r14
    226e:	ff 92       	push	r15
    2270:	0f 93       	push	r16
    2272:	1f 93       	push	r17
    2274:	7b 01       	movw	r14, r22
    2276:	8c 01       	movw	r16, r24
    2278:	d4 2e       	mov	r13, r20
  if (cacheBlockNumber_ != blockNumber) {
    227a:	80 91 28 02 	lds	r24, 0x0228
    227e:	90 91 29 02 	lds	r25, 0x0229
    2282:	a0 91 2a 02 	lds	r26, 0x022A
    2286:	b0 91 2b 02 	lds	r27, 0x022B
    228a:	8e 15       	cp	r24, r14
    228c:	9f 05       	cpc	r25, r15
    228e:	a0 07       	cpc	r26, r16
    2290:	b1 07       	cpc	r27, r17
    2292:	b9 f0       	breq	.+46     	; 0x22c2 <_ZN8SdVolume13cacheRawBlockEmh+0x58>
    if (!cacheFlush()) return false;
    2294:	8c df       	rcall	.-232    	; 0x21ae <_ZN8SdVolume10cacheFlushEv>
    2296:	88 23       	and	r24, r24
    2298:	d9 f0       	breq	.+54     	; 0x22d0 <_ZN8SdVolume13cacheRawBlockEmh+0x66>
    229a:	80 91 7a 05 	lds	r24, 0x057A
    if (!sdCard_->readBlock(blockNumber, cacheBuffer_.data)) return false;
    229e:	90 91 7b 05 	lds	r25, 0x057B
    22a2:	b8 01       	movw	r22, r16
    22a4:	a7 01       	movw	r20, r14
    22a6:	2a e7       	ldi	r18, 0x7A	; 122
    22a8:	33 e0       	ldi	r19, 0x03	; 3
    22aa:	0e 94 7e 08 	call	0x10fc	; 0x10fc <_ZN7Sd2Card9readBlockEmPh>
    22ae:	88 23       	and	r24, r24
    22b0:	79 f0       	breq	.+30     	; 0x22d0 <_ZN8SdVolume13cacheRawBlockEmh+0x66>
    22b2:	e0 92 28 02 	sts	0x0228, r14
    cacheBlockNumber_ = blockNumber;
    22b6:	f0 92 29 02 	sts	0x0229, r15
    22ba:	00 93 2a 02 	sts	0x022A, r16
    22be:	10 93 2b 02 	sts	0x022B, r17
    22c2:	80 91 7c 05 	lds	r24, 0x057C
  }
  cacheDirty_ |= action;
    22c6:	8d 29       	or	r24, r13
    22c8:	80 93 7c 05 	sts	0x057C, r24
    22cc:	81 e0       	ldi	r24, 0x01	; 1
    22ce:	01 c0       	rjmp	.+2      	; 0x22d2 <_ZN8SdVolume13cacheRawBlockEmh+0x68>
    22d0:	80 e0       	ldi	r24, 0x00	; 0
  return true;
    22d2:	1f 91       	pop	r17
}
    22d4:	0f 91       	pop	r16
    22d6:	ff 90       	pop	r15
    22d8:	ef 90       	pop	r14
    22da:	df 90       	pop	r13
    22dc:	08 95       	ret

000022de <_ZN8SdVolume4initEP7Sd2Cardh>:
 * \return The value one, true, is returned for success and
 * the value zero, false, is returned for failure.  Reasons for
 * failure include not finding a valid partition, not finding a valid
 * FAT file system in the specified partition or an I/O error.
 */
uint8_t SdVolume::init(Sd2Card* dev, uint8_t part) {
    22de:	8f 92       	push	r8
    22e0:	9f 92       	push	r9
    22e2:	af 92       	push	r10
    22e4:	bf 92       	push	r11
    22e6:	cf 92       	push	r12
    22e8:	df 92       	push	r13
    22ea:	ef 92       	push	r14
    22ec:	ff 92       	push	r15
    22ee:	0f 93       	push	r16
    22f0:	1f 93       	push	r17
    22f2:	cf 93       	push	r28
    22f4:	df 93       	push	r29
    22f6:	6c 01       	movw	r12, r24
    22f8:	14 2f       	mov	r17, r20
  uint32_t volumeStartBlock = 0;
  sdCard_ = dev;
    22fa:	70 93 7b 05 	sts	0x057B, r23
    22fe:	60 93 7a 05 	sts	0x057A, r22
  // if part == 0 assume super floppy with FAT boot sector in block zero
  // if part > 0 assume mbr volume with partition table
  if (part) {
    2302:	44 23       	and	r20, r20
    2304:	21 f4       	brne	.+8      	; 0x230e <_ZN8SdVolume4initEP7Sd2Cardh+0x30>
    2306:	88 24       	eor	r8, r8
    2308:	99 24       	eor	r9, r9
    230a:	54 01       	movw	r10, r8
    230c:	3f c0       	rjmp	.+126    	; 0x238c <_ZN8SdVolume4initEP7Sd2Cardh+0xae>
    if (part > 4)return false;
    230e:	45 30       	cpi	r20, 0x05	; 5
    2310:	08 f0       	brcs	.+2      	; 0x2314 <_ZN8SdVolume4initEP7Sd2Cardh+0x36>
    2312:	1a c1       	rjmp	.+564    	; 0x2548 <_ZN8SdVolume4initEP7Sd2Cardh+0x26a>
    if (!cacheRawBlock(volumeStartBlock, CACHE_FOR_READ)) return false;
    2314:	60 e0       	ldi	r22, 0x00	; 0
    2316:	70 e0       	ldi	r23, 0x00	; 0
    2318:	80 e0       	ldi	r24, 0x00	; 0
    231a:	90 e0       	ldi	r25, 0x00	; 0
    231c:	40 e0       	ldi	r20, 0x00	; 0
    231e:	a5 df       	rcall	.-182    	; 0x226a <_ZN8SdVolume13cacheRawBlockEmh>
    2320:	88 23       	and	r24, r24
    2322:	09 f4       	brne	.+2      	; 0x2326 <_ZN8SdVolume4initEP7Sd2Cardh+0x48>
    2324:	11 c1       	rjmp	.+546    	; 0x2548 <_ZN8SdVolume4initEP7Sd2Cardh+0x26a>
    2326:	c1 2f       	mov	r28, r17
    part_t* p = &cacheBuffer_.mbr.part[part-1];
    2328:	d0 e0       	ldi	r29, 0x00	; 0
    232a:	21 97       	sbiw	r28, 0x01	; 1
    232c:	fe 01       	movw	r30, r28
    if ((p->boot & 0X7F) !=0  ||
    232e:	74 e0       	ldi	r23, 0x04	; 4
    2330:	ee 0f       	add	r30, r30
    2332:	ff 1f       	adc	r31, r31
    2334:	7a 95       	dec	r23
    2336:	e1 f7       	brne	.-8      	; 0x2330 <_ZN8SdVolume4initEP7Sd2Cardh+0x52>
    2338:	e6 58       	subi	r30, 0x86	; 134
    233a:	fc 4f       	sbci	r31, 0xFC	; 252
    233c:	e2 54       	subi	r30, 0x42	; 66
    233e:	fe 4f       	sbci	r31, 0xFE	; 254
    2340:	80 81       	ld	r24, Z
    2342:	ee 5b       	subi	r30, 0xBE	; 190
    2344:	f1 40       	sbci	r31, 0x01	; 1
    2346:	90 e0       	ldi	r25, 0x00	; 0
    2348:	8f 77       	andi	r24, 0x7F	; 127
    234a:	90 70       	andi	r25, 0x00	; 0
    234c:	89 2b       	or	r24, r25
    234e:	09 f0       	breq	.+2      	; 0x2352 <_ZN8SdVolume4initEP7Sd2Cardh+0x74>
    2350:	fb c0       	rjmp	.+502    	; 0x2548 <_ZN8SdVolume4initEP7Sd2Cardh+0x26a>
    2352:	e6 53       	subi	r30, 0x36	; 54
    2354:	fe 4f       	sbci	r31, 0xFE	; 254
    2356:	80 81       	ld	r24, Z
    2358:	91 81       	ldd	r25, Z+1	; 0x01
    235a:	a2 81       	ldd	r26, Z+2	; 0x02
    235c:	b3 81       	ldd	r27, Z+3	; 0x03
    235e:	84 36       	cpi	r24, 0x64	; 100
    2360:	91 05       	cpc	r25, r1
    2362:	a1 05       	cpc	r26, r1
    2364:	b1 05       	cpc	r27, r1
    2366:	08 f4       	brcc	.+2      	; 0x236a <_ZN8SdVolume4initEP7Sd2Cardh+0x8c>
    2368:	ef c0       	rjmp	.+478    	; 0x2548 <_ZN8SdVolume4initEP7Sd2Cardh+0x26a>
    236a:	64 e0       	ldi	r22, 0x04	; 4
    236c:	cc 0f       	add	r28, r28
    236e:	dd 1f       	adc	r29, r29
    2370:	6a 95       	dec	r22
    2372:	e1 f7       	brne	.-8      	; 0x236c <_ZN8SdVolume4initEP7Sd2Cardh+0x8e>
    2374:	c0 5c       	subi	r28, 0xC0	; 192
    2376:	da 4f       	sbci	r29, 0xFA	; 250
    2378:	88 80       	ld	r8, Y
    237a:	99 80       	ldd	r9, Y+1	; 0x01
    237c:	aa 80       	ldd	r10, Y+2	; 0x02
    237e:	bb 80       	ldd	r11, Y+3	; 0x03
    2380:	81 14       	cp	r8, r1
    2382:	91 04       	cpc	r9, r1
    2384:	a1 04       	cpc	r10, r1
    2386:	b1 04       	cpc	r11, r1
    2388:	09 f4       	brne	.+2      	; 0x238c <_ZN8SdVolume4initEP7Sd2Cardh+0xae>
    238a:	de c0       	rjmp	.+444    	; 0x2548 <_ZN8SdVolume4initEP7Sd2Cardh+0x26a>
    238c:	c5 01       	movw	r24, r10
      // not a valid partition
      return false;
    }
    volumeStartBlock = p->firstSector;
  }
  if (!cacheRawBlock(volumeStartBlock, CACHE_FOR_READ)) return false;
    238e:	b4 01       	movw	r22, r8
    2390:	40 e0       	ldi	r20, 0x00	; 0
    2392:	6b df       	rcall	.-298    	; 0x226a <_ZN8SdVolume13cacheRawBlockEmh>
    2394:	88 23       	and	r24, r24
    2396:	09 f4       	brne	.+2      	; 0x239a <_ZN8SdVolume4initEP7Sd2Cardh+0xbc>
    2398:	d7 c0       	rjmp	.+430    	; 0x2548 <_ZN8SdVolume4initEP7Sd2Cardh+0x26a>
    239a:	80 91 85 03 	lds	r24, 0x0385
  bpb_t* bpb = &cacheBuffer_.fbs.bpb;
  if (bpb->bytesPerSector != 512 ||
    239e:	90 91 86 03 	lds	r25, 0x0386
    23a2:	80 50       	subi	r24, 0x00	; 0
    23a4:	92 40       	sbci	r25, 0x02	; 2
    23a6:	09 f0       	breq	.+2      	; 0x23aa <_ZN8SdVolume4initEP7Sd2Cardh+0xcc>
    23a8:	cf c0       	rjmp	.+414    	; 0x2548 <_ZN8SdVolume4initEP7Sd2Cardh+0x26a>
    23aa:	20 91 8a 03 	lds	r18, 0x038A
    23ae:	22 23       	and	r18, r18
    23b0:	09 f4       	brne	.+2      	; 0x23b4 <_ZN8SdVolume4initEP7Sd2Cardh+0xd6>
    23b2:	ca c0       	rjmp	.+404    	; 0x2548 <_ZN8SdVolume4initEP7Sd2Cardh+0x26a>
    23b4:	80 91 88 03 	lds	r24, 0x0388
    23b8:	90 91 89 03 	lds	r25, 0x0389
    23bc:	89 2b       	or	r24, r25
    23be:	09 f4       	brne	.+2      	; 0x23c2 <_ZN8SdVolume4initEP7Sd2Cardh+0xe4>
    23c0:	c3 c0       	rjmp	.+390    	; 0x2548 <_ZN8SdVolume4initEP7Sd2Cardh+0x26a>
    23c2:	80 91 87 03 	lds	r24, 0x0387
    23c6:	88 23       	and	r24, r24
    23c8:	09 f4       	brne	.+2      	; 0x23cc <_ZN8SdVolume4initEP7Sd2Cardh+0xee>
    23ca:	be c0       	rjmp	.+380    	; 0x2548 <_ZN8SdVolume4initEP7Sd2Cardh+0x26a>
    23cc:	f6 01       	movw	r30, r12
    23ce:	22 8b       	std	Z+18, r18	; 0x12
    bpb->reservedSectorCount == 0 ||
    bpb->sectorsPerCluster == 0) {
       // not valid FAT volume
      return false;
  }
  fatCount_ = bpb->fatCount;
    23d0:	80 91 87 03 	lds	r24, 0x0387
  blocksPerCluster_ = bpb->sectorsPerCluster;
    23d4:	84 83       	std	Z+4, r24	; 0x04
    23d6:	15 86       	std	Z+13, r1	; 0x0d
    23d8:	61 e0       	ldi	r22, 0x01	; 1

  // determine shift that is same as multiply by blocksPerCluster_
  clusterSizeShift_ = 0;
    23da:	70 e0       	ldi	r23, 0x00	; 0
  while (blocksPerCluster_ != (1 << clusterSizeShift_)) {
    23dc:	07 c0       	rjmp	.+14     	; 0x23ec <_ZN8SdVolume4initEP7Sd2Cardh+0x10e>
    23de:	4f 5f       	subi	r20, 0xFF	; 255
    23e0:	f6 01       	movw	r30, r12
    // error if not power of 2
    if (clusterSizeShift_++ > 7) return false;
    23e2:	45 87       	std	Z+13, r20	; 0x0d
    23e4:	41 50       	subi	r20, 0x01	; 1
    23e6:	48 30       	cpi	r20, 0x08	; 8
    23e8:	08 f0       	brcs	.+2      	; 0x23ec <_ZN8SdVolume4initEP7Sd2Cardh+0x10e>
    23ea:	ae c0       	rjmp	.+348    	; 0x2548 <_ZN8SdVolume4initEP7Sd2Cardh+0x26a>
    23ec:	f6 01       	movw	r30, r12
    23ee:	45 85       	ldd	r20, Z+13	; 0x0d
  fatCount_ = bpb->fatCount;
  blocksPerCluster_ = bpb->sectorsPerCluster;

  // determine shift that is same as multiply by blocksPerCluster_
  clusterSizeShift_ = 0;
  while (blocksPerCluster_ != (1 << clusterSizeShift_)) {
    23f0:	84 81       	ldd	r24, Z+4	; 0x04
    23f2:	90 e0       	ldi	r25, 0x00	; 0
    23f4:	9b 01       	movw	r18, r22
    23f6:	04 2e       	mov	r0, r20
    23f8:	02 c0       	rjmp	.+4      	; 0x23fe <_ZN8SdVolume4initEP7Sd2Cardh+0x120>
    23fa:	22 0f       	add	r18, r18
    23fc:	33 1f       	adc	r19, r19
    23fe:	0a 94       	dec	r0
    2400:	e2 f7       	brpl	.-8      	; 0x23fa <_ZN8SdVolume4initEP7Sd2Cardh+0x11c>
    2402:	82 17       	cp	r24, r18
    2404:	93 07       	cpc	r25, r19
    2406:	59 f7       	brne	.-42     	; 0x23de <_ZN8SdVolume4initEP7Sd2Cardh+0x100>
    2408:	20 91 90 03 	lds	r18, 0x0390
    // error if not power of 2
    if (clusterSizeShift_++ > 7) return false;
  }
  blocksPerFat_ = bpb->sectorsPerFat16 ?
                    bpb->sectorsPerFat16 : bpb->sectorsPerFat32;
    240c:	30 91 91 03 	lds	r19, 0x0391
    2410:	21 15       	cp	r18, r1
    2412:	31 05       	cpc	r19, r1
    2414:	19 f0       	breq	.+6      	; 0x241c <_ZN8SdVolume4initEP7Sd2Cardh+0x13e>
    2416:	40 e0       	ldi	r20, 0x00	; 0
    2418:	50 e0       	ldi	r21, 0x00	; 0
    241a:	08 c0       	rjmp	.+16     	; 0x242c <_ZN8SdVolume4initEP7Sd2Cardh+0x14e>
    241c:	20 91 9e 03 	lds	r18, 0x039E
    2420:	30 91 9f 03 	lds	r19, 0x039F
    2424:	40 91 a0 03 	lds	r20, 0x03A0
    2428:	50 91 a1 03 	lds	r21, 0x03A1
    242c:	f6 01       	movw	r30, r12
    242e:	25 83       	std	Z+5, r18	; 0x05
    2430:	36 83       	std	Z+6, r19	; 0x06
    2432:	47 83       	std	Z+7, r20	; 0x07
    2434:	50 87       	std	Z+8, r21	; 0x08
    2436:	e0 90 88 03 	lds	r14, 0x0388

  fatStartBlock_ = volumeStartBlock + bpb->reservedSectorCount;
    243a:	f0 90 89 03 	lds	r15, 0x0389
    243e:	00 e0       	ldi	r16, 0x00	; 0
    2440:	10 e0       	ldi	r17, 0x00	; 0
    2442:	e8 0c       	add	r14, r8
    2444:	f9 1c       	adc	r15, r9
    2446:	0a 1d       	adc	r16, r10
    2448:	1b 1d       	adc	r17, r11
    244a:	e3 8a       	std	Z+19, r14	; 0x13
    244c:	f4 8a       	std	Z+20, r15	; 0x14
    244e:	05 8b       	std	Z+21, r16	; 0x15
    2450:	16 8b       	std	Z+22, r17	; 0x16
    2452:	80 91 8b 03 	lds	r24, 0x038B

  // count for FAT16 zero for FAT32
  rootDirEntryCount_ = bpb->rootDirEntryCount;
    2456:	90 91 8c 03 	lds	r25, 0x038C
    245a:	91 8f       	std	Z+25, r25	; 0x19
    245c:	80 8f       	std	Z+24, r24	; 0x18
    245e:	60 91 8a 03 	lds	r22, 0x038A

  // directory start for FAT16 dataStart for FAT32
  rootDirStart_ = fatStartBlock_ + bpb->fatCount * blocksPerFat_;
    2462:	70 e0       	ldi	r23, 0x00	; 0
    2464:	80 e0       	ldi	r24, 0x00	; 0
    2466:	90 e0       	ldi	r25, 0x00	; 0
    2468:	0e 94 28 1f 	call	0x3e50	; 0x3e50 <__mulsi3>
    246c:	6e 0d       	add	r22, r14
    246e:	7f 1d       	adc	r23, r15
    2470:	80 1f       	adc	r24, r16
    2472:	91 1f       	adc	r25, r17
    2474:	f6 01       	movw	r30, r12
    2476:	62 8f       	std	Z+26, r22	; 0x1a
    2478:	73 8f       	std	Z+27, r23	; 0x1b
    247a:	84 8f       	std	Z+28, r24	; 0x1c
    247c:	95 8f       	std	Z+29, r25	; 0x1d
    247e:	20 91 8b 03 	lds	r18, 0x038B

  // data start for FAT16 and FAT32
  dataStartBlock_ = rootDirStart_ + ((32 * bpb->rootDirEntryCount + 511)/512);
    2482:	30 91 8c 03 	lds	r19, 0x038C
    2486:	55 e0       	ldi	r21, 0x05	; 5
    2488:	22 0f       	add	r18, r18
    248a:	33 1f       	adc	r19, r19
    248c:	5a 95       	dec	r21
    248e:	e1 f7       	brne	.-8      	; 0x2488 <_ZN8SdVolume4initEP7Sd2Cardh+0x1aa>
    2490:	21 50       	subi	r18, 0x01	; 1
    2492:	3e 4f       	sbci	r19, 0xFE	; 254
    2494:	23 2f       	mov	r18, r19
    2496:	33 27       	eor	r19, r19
    2498:	26 95       	lsr	r18
    249a:	40 e0       	ldi	r20, 0x00	; 0
    249c:	50 e0       	ldi	r21, 0x00	; 0
    249e:	26 0f       	add	r18, r22
    24a0:	37 1f       	adc	r19, r23
    24a2:	48 1f       	adc	r20, r24
    24a4:	59 1f       	adc	r21, r25
    24a6:	26 87       	std	Z+14, r18	; 0x0e
    24a8:	37 87       	std	Z+15, r19	; 0x0f
    24aa:	40 8b       	std	Z+16, r20	; 0x10
    24ac:	51 8b       	std	Z+17, r21	; 0x11
    24ae:	80 91 8d 03 	lds	r24, 0x038D

  // total blocks for FAT16 or FAT32
  uint32_t totalBlocks = bpb->totalSectors16 ?
                           bpb->totalSectors16 : bpb->totalSectors32;
    24b2:	90 91 8e 03 	lds	r25, 0x038E
    24b6:	00 97       	sbiw	r24, 0x00	; 0
    24b8:	19 f0       	breq	.+6      	; 0x24c0 <_ZN8SdVolume4initEP7Sd2Cardh+0x1e2>
    24ba:	a0 e0       	ldi	r26, 0x00	; 0
    24bc:	b0 e0       	ldi	r27, 0x00	; 0
    24be:	08 c0       	rjmp	.+16     	; 0x24d0 <_ZN8SdVolume4initEP7Sd2Cardh+0x1f2>
    24c0:	80 91 9a 03 	lds	r24, 0x039A
    24c4:	90 91 9b 03 	lds	r25, 0x039B
    24c8:	a0 91 9c 03 	lds	r26, 0x039C
    24cc:	b0 91 9d 03 	lds	r27, 0x039D
    24d0:	85 01       	movw	r16, r10
    24d2:	74 01       	movw	r14, r8
  // total data blocks
  clusterCount_ = totalBlocks - (dataStartBlock_ - volumeStartBlock);
    24d4:	e2 1a       	sub	r14, r18
    24d6:	f3 0a       	sbc	r15, r19
    24d8:	04 0b       	sbc	r16, r20
    24da:	15 0b       	sbc	r17, r21
    24dc:	a8 01       	movw	r20, r16
    24de:	97 01       	movw	r18, r14
    24e0:	28 0f       	add	r18, r24
    24e2:	39 1f       	adc	r19, r25
    24e4:	4a 1f       	adc	r20, r26
    24e6:	5b 1f       	adc	r21, r27
    24e8:	f6 01       	movw	r30, r12
    24ea:	05 84       	ldd	r0, Z+13	; 0x0d

  // divide by cluster size to get cluster count
  clusterCount_ >>= clusterSizeShift_;
    24ec:	04 c0       	rjmp	.+8      	; 0x24f6 <_ZN8SdVolume4initEP7Sd2Cardh+0x218>
    24ee:	56 95       	lsr	r21
    24f0:	47 95       	ror	r20
    24f2:	37 95       	ror	r19
    24f4:	27 95       	ror	r18
    24f6:	0a 94       	dec	r0
    24f8:	d2 f7       	brpl	.-12     	; 0x24ee <_ZN8SdVolume4initEP7Sd2Cardh+0x210>
    24fa:	21 87       	std	Z+9, r18	; 0x09
    24fc:	32 87       	std	Z+10, r19	; 0x0a
    24fe:	43 87       	std	Z+11, r20	; 0x0b
    2500:	54 87       	std	Z+12, r21	; 0x0c
    2502:	25 3f       	cpi	r18, 0xF5	; 245
    2504:	ff e0       	ldi	r31, 0x0F	; 15

  // FAT type is determined by cluster count
  if (clusterCount_ < 4085) {
    2506:	3f 07       	cpc	r19, r31
    2508:	f0 e0       	ldi	r31, 0x00	; 0
    250a:	4f 07       	cpc	r20, r31
    250c:	f0 e0       	ldi	r31, 0x00	; 0
    250e:	5f 07       	cpc	r21, r31
    2510:	10 f4       	brcc	.+4      	; 0x2516 <_ZN8SdVolume4initEP7Sd2Cardh+0x238>
    2512:	8c e0       	ldi	r24, 0x0C	; 12
    2514:	06 c0       	rjmp	.+12     	; 0x2522 <_ZN8SdVolume4initEP7Sd2Cardh+0x244>
    fatType_ = 12;
    2516:	25 5f       	subi	r18, 0xF5	; 245
    2518:	3f 4f       	sbci	r19, 0xFF	; 255
  } else if (clusterCount_ < 65525) {
    251a:	40 40       	sbci	r20, 0x00	; 0
    251c:	50 40       	sbci	r21, 0x00	; 0
    251e:	28 f4       	brcc	.+10     	; 0x252a <_ZN8SdVolume4initEP7Sd2Cardh+0x24c>
    2520:	80 e1       	ldi	r24, 0x10	; 16
    2522:	f6 01       	movw	r30, r12
    fatType_ = 16;
    2524:	87 8b       	std	Z+23, r24	; 0x17
    2526:	81 e0       	ldi	r24, 0x01	; 1
    2528:	10 c0       	rjmp	.+32     	; 0x254a <_ZN8SdVolume4initEP7Sd2Cardh+0x26c>
    252a:	80 91 a6 03 	lds	r24, 0x03A6
  } else {
    rootDirStart_ = bpb->fat32RootCluster;
    252e:	90 91 a7 03 	lds	r25, 0x03A7
    2532:	a0 91 a8 03 	lds	r26, 0x03A8
    2536:	b0 91 a9 03 	lds	r27, 0x03A9
    253a:	f6 01       	movw	r30, r12
    253c:	82 8f       	std	Z+26, r24	; 0x1a
    253e:	93 8f       	std	Z+27, r25	; 0x1b
    2540:	a4 8f       	std	Z+28, r26	; 0x1c
    2542:	b5 8f       	std	Z+29, r27	; 0x1d
    2544:	80 e2       	ldi	r24, 0x20	; 32
    2546:	ee cf       	rjmp	.-36     	; 0x2524 <_ZN8SdVolume4initEP7Sd2Cardh+0x246>
    fatType_ = 32;
    2548:	80 e0       	ldi	r24, 0x00	; 0
    254a:	df 91       	pop	r29
    254c:	cf 91       	pop	r28
  }
  return true;
}
    254e:	1f 91       	pop	r17
    2550:	0f 91       	pop	r16
    2552:	ff 90       	pop	r15
    2554:	ef 90       	pop	r14
    2556:	df 90       	pop	r13
    2558:	cf 90       	pop	r12
    255a:	bf 90       	pop	r11
    255c:	af 90       	pop	r10
    255e:	9f 90       	pop	r9
    2560:	8f 90       	pop	r8
    2562:	08 95       	ret

00002564 <_ZN8SdVolume6fatPutEmm>:
  }
  return true;
}
//------------------------------------------------------------------------------
// Store a FAT entry
uint8_t SdVolume::fatPut(uint32_t cluster, uint32_t value) {
    2564:	4f 92       	push	r4
    2566:	5f 92       	push	r5
    2568:	6f 92       	push	r6
    256a:	7f 92       	push	r7
    256c:	8f 92       	push	r8
    256e:	9f 92       	push	r9
    2570:	af 92       	push	r10
    2572:	bf 92       	push	r11
    2574:	cf 92       	push	r12
    2576:	df 92       	push	r13
    2578:	ef 92       	push	r14
    257a:	ff 92       	push	r15
    257c:	0f 93       	push	r16
    257e:	1f 93       	push	r17
    2580:	cf 93       	push	r28
    2582:	df 93       	push	r29
    2584:	ec 01       	movw	r28, r24
    2586:	6a 01       	movw	r12, r20
    2588:	7b 01       	movw	r14, r22
    258a:	28 01       	movw	r4, r16
    258c:	39 01       	movw	r6, r18
  // error if reserved cluster
  if (cluster < 2) return false;
    258e:	42 30       	cpi	r20, 0x02	; 2
    2590:	51 05       	cpc	r21, r1
    2592:	61 05       	cpc	r22, r1
    2594:	71 05       	cpc	r23, r1
    2596:	08 f4       	brcc	.+2      	; 0x259a <_ZN8SdVolume6fatPutEmm+0x36>
    2598:	6e c0       	rjmp	.+220    	; 0x2676 <_ZN8SdVolume6fatPutEmm+0x112>

  // error if not in FAT
  if (cluster > (clusterCount_ + 1)) return false;
    259a:	89 85       	ldd	r24, Y+9	; 0x09
    259c:	9a 85       	ldd	r25, Y+10	; 0x0a
    259e:	ab 85       	ldd	r26, Y+11	; 0x0b
    25a0:	bc 85       	ldd	r27, Y+12	; 0x0c
    25a2:	01 96       	adiw	r24, 0x01	; 1
    25a4:	a1 1d       	adc	r26, r1
    25a6:	b1 1d       	adc	r27, r1
    25a8:	84 17       	cp	r24, r20
    25aa:	95 07       	cpc	r25, r21
    25ac:	a6 07       	cpc	r26, r22
    25ae:	b7 07       	cpc	r27, r23
    25b0:	08 f4       	brcc	.+2      	; 0x25b4 <_ZN8SdVolume6fatPutEmm+0x50>
    25b2:	61 c0       	rjmp	.+194    	; 0x2676 <_ZN8SdVolume6fatPutEmm+0x112>

  // calculate block address for entry
  uint32_t lba = fatStartBlock_;
    25b4:	2b 89       	ldd	r18, Y+19	; 0x13
    25b6:	3c 89       	ldd	r19, Y+20	; 0x14
    25b8:	4d 89       	ldd	r20, Y+21	; 0x15
    25ba:	5e 89       	ldd	r21, Y+22	; 0x16
  lba += fatType_ == 16 ? cluster >> 8 : cluster >> 7;
    25bc:	8f 89       	ldd	r24, Y+23	; 0x17
    25be:	80 31       	cpi	r24, 0x10	; 16
    25c0:	29 f4       	brne	.+10     	; 0x25cc <_ZN8SdVolume6fatPutEmm+0x68>
    25c2:	99 27       	eor	r25, r25
    25c4:	8f 2d       	mov	r24, r15
    25c6:	7e 2d       	mov	r23, r14
    25c8:	6d 2d       	mov	r22, r13
    25ca:	09 c0       	rjmp	.+18     	; 0x25de <_ZN8SdVolume6fatPutEmm+0x7a>
    25cc:	c7 01       	movw	r24, r14
    25ce:	b6 01       	movw	r22, r12
    25d0:	17 e0       	ldi	r17, 0x07	; 7
    25d2:	96 95       	lsr	r25
    25d4:	87 95       	ror	r24
    25d6:	77 95       	ror	r23
    25d8:	67 95       	ror	r22
    25da:	1a 95       	dec	r17
    25dc:	d1 f7       	brne	.-12     	; 0x25d2 <_ZN8SdVolume6fatPutEmm+0x6e>
    25de:	4b 01       	movw	r8, r22
    25e0:	5c 01       	movw	r10, r24
    25e2:	82 0e       	add	r8, r18
    25e4:	93 1e       	adc	r9, r19
    25e6:	a4 1e       	adc	r10, r20
    25e8:	b5 1e       	adc	r11, r21

  if (lba != cacheBlockNumber_) {
    25ea:	80 91 28 02 	lds	r24, 0x0228
    25ee:	90 91 29 02 	lds	r25, 0x0229
    25f2:	a0 91 2a 02 	lds	r26, 0x022A
    25f6:	b0 91 2b 02 	lds	r27, 0x022B
    25fa:	88 16       	cp	r8, r24
    25fc:	99 06       	cpc	r9, r25
    25fe:	aa 06       	cpc	r10, r26
    2600:	bb 06       	cpc	r11, r27
    2602:	31 f0       	breq	.+12     	; 0x2610 <_ZN8SdVolume6fatPutEmm+0xac>
    if (!cacheRawBlock(lba, CACHE_FOR_READ)) return false;
    2604:	c5 01       	movw	r24, r10
    2606:	b4 01       	movw	r22, r8
    2608:	40 e0       	ldi	r20, 0x00	; 0
    260a:	2f de       	rcall	.-930    	; 0x226a <_ZN8SdVolume13cacheRawBlockEmh>
    260c:	88 23       	and	r24, r24
    260e:	99 f1       	breq	.+102    	; 0x2676 <_ZN8SdVolume6fatPutEmm+0x112>
    2610:	8f 89       	ldd	r24, Y+23	; 0x17
  }
  // store entry
  if (fatType_ == 16) {
    2612:	80 31       	cpi	r24, 0x10	; 16
    2614:	49 f4       	brne	.+18     	; 0x2628 <_ZN8SdVolume6fatPutEmm+0xc4>
    2616:	f6 01       	movw	r30, r12
    cacheBuffer_.fat16[cluster & 0XFF] = value;
    2618:	f0 70       	andi	r31, 0x00	; 0
    261a:	ee 0f       	add	r30, r30
    261c:	ff 1f       	adc	r31, r31
    261e:	e6 58       	subi	r30, 0x86	; 134
    2620:	fc 4f       	sbci	r31, 0xFC	; 252
    2622:	51 82       	std	Z+1, r5	; 0x01
    2624:	40 82       	st	Z, r4
    2626:	0d c0       	rjmp	.+26     	; 0x2642 <_ZN8SdVolume6fatPutEmm+0xde>
    2628:	f6 01       	movw	r30, r12
  } else {
    cacheBuffer_.fat32[cluster & 0X7F] = value;
    262a:	ef 77       	andi	r30, 0x7F	; 127
    262c:	f0 70       	andi	r31, 0x00	; 0
    262e:	ee 0f       	add	r30, r30
    2630:	ff 1f       	adc	r31, r31
    2632:	ee 0f       	add	r30, r30
    2634:	ff 1f       	adc	r31, r31
    2636:	e6 58       	subi	r30, 0x86	; 134
    2638:	fc 4f       	sbci	r31, 0xFC	; 252
    263a:	40 82       	st	Z, r4
    263c:	51 82       	std	Z+1, r5	; 0x01
    263e:	62 82       	std	Z+2, r6	; 0x02
    2640:	73 82       	std	Z+3, r7	; 0x03
    2642:	80 91 7c 05 	lds	r24, 0x057C
    2646:	81 60       	ori	r24, 0x01	; 1
    2648:	80 93 7c 05 	sts	0x057C, r24
    264c:	8a 89       	ldd	r24, Y+18	; 0x12
  }
  cacheSetDirty();

  // mirror second FAT
  if (fatCount_ > 1) cacheMirrorBlock_ = lba + blocksPerFat_;
    264e:	82 30       	cpi	r24, 0x02	; 2
    2650:	80 f0       	brcs	.+32     	; 0x2672 <_ZN8SdVolume6fatPutEmm+0x10e>
    2652:	8d 81       	ldd	r24, Y+5	; 0x05
    2654:	9e 81       	ldd	r25, Y+6	; 0x06
    2656:	af 81       	ldd	r26, Y+7	; 0x07
    2658:	b8 85       	ldd	r27, Y+8	; 0x08
    265a:	88 0e       	add	r8, r24
    265c:	99 1e       	adc	r9, r25
    265e:	aa 1e       	adc	r10, r26
    2660:	bb 1e       	adc	r11, r27
    2662:	80 92 7d 05 	sts	0x057D, r8
    2666:	90 92 7e 05 	sts	0x057E, r9
    266a:	a0 92 7f 05 	sts	0x057F, r10
    266e:	b0 92 80 05 	sts	0x0580, r11
    2672:	81 e0       	ldi	r24, 0x01	; 1
    2674:	01 c0       	rjmp	.+2      	; 0x2678 <_ZN8SdVolume6fatPutEmm+0x114>
    2676:	80 e0       	ldi	r24, 0x00	; 0
    2678:	df 91       	pop	r29
  return true;
}
    267a:	cf 91       	pop	r28
    267c:	1f 91       	pop	r17
    267e:	0f 91       	pop	r16
    2680:	ff 90       	pop	r15
    2682:	ef 90       	pop	r14
    2684:	df 90       	pop	r13
    2686:	cf 90       	pop	r12
    2688:	bf 90       	pop	r11
    268a:	af 90       	pop	r10
    268c:	9f 90       	pop	r9
    268e:	8f 90       	pop	r8
    2690:	7f 90       	pop	r7
    2692:	6f 90       	pop	r6
    2694:	5f 90       	pop	r5
    2696:	4f 90       	pop	r4
    2698:	08 95       	ret

0000269a <_ZNK8SdVolume6fatGetEmPm>:
  *size = s;
  return true;
}
//------------------------------------------------------------------------------
// Fetch a FAT entry
uint8_t SdVolume::fatGet(uint32_t cluster, uint32_t* value) const {
    269a:	cf 92       	push	r12
    269c:	df 92       	push	r13
    269e:	ef 92       	push	r14
    26a0:	ff 92       	push	r15
    26a2:	0f 93       	push	r16
    26a4:	1f 93       	push	r17
    26a6:	cf 93       	push	r28
    26a8:	df 93       	push	r29
    26aa:	ec 01       	movw	r28, r24
    26ac:	7a 01       	movw	r14, r20
    26ae:	8b 01       	movw	r16, r22
    26b0:	69 01       	movw	r12, r18
  if (cluster > (clusterCount_ + 1)) return false;
    26b2:	89 85       	ldd	r24, Y+9	; 0x09
    26b4:	9a 85       	ldd	r25, Y+10	; 0x0a
    26b6:	ab 85       	ldd	r26, Y+11	; 0x0b
    26b8:	bc 85       	ldd	r27, Y+12	; 0x0c
    26ba:	01 96       	adiw	r24, 0x01	; 1
    26bc:	a1 1d       	adc	r26, r1
    26be:	b1 1d       	adc	r27, r1
    26c0:	84 17       	cp	r24, r20
    26c2:	95 07       	cpc	r25, r21
    26c4:	a6 07       	cpc	r26, r22
    26c6:	b7 07       	cpc	r27, r23
    26c8:	08 f4       	brcc	.+2      	; 0x26cc <_ZNK8SdVolume6fatGetEmPm+0x32>
    26ca:	4f c0       	rjmp	.+158    	; 0x276a <_ZNK8SdVolume6fatGetEmPm+0xd0>
  uint32_t lba = fatStartBlock_;
    26cc:	2b 89       	ldd	r18, Y+19	; 0x13
    26ce:	3c 89       	ldd	r19, Y+20	; 0x14
    26d0:	4d 89       	ldd	r20, Y+21	; 0x15
    26d2:	5e 89       	ldd	r21, Y+22	; 0x16
  lba += fatType_ == 16 ? cluster >> 8 : cluster >> 7;
    26d4:	8f 89       	ldd	r24, Y+23	; 0x17
    26d6:	80 31       	cpi	r24, 0x10	; 16
    26d8:	29 f4       	brne	.+10     	; 0x26e4 <_ZNK8SdVolume6fatGetEmPm+0x4a>
    26da:	99 27       	eor	r25, r25
    26dc:	81 2f       	mov	r24, r17
    26de:	70 2f       	mov	r23, r16
    26e0:	6f 2d       	mov	r22, r15
    26e2:	09 c0       	rjmp	.+18     	; 0x26f6 <_ZNK8SdVolume6fatGetEmPm+0x5c>
    26e4:	c8 01       	movw	r24, r16
    26e6:	b7 01       	movw	r22, r14
    26e8:	e7 e0       	ldi	r30, 0x07	; 7
    26ea:	96 95       	lsr	r25
    26ec:	87 95       	ror	r24
    26ee:	77 95       	ror	r23
    26f0:	67 95       	ror	r22
    26f2:	ea 95       	dec	r30
    26f4:	d1 f7       	brne	.-12     	; 0x26ea <_ZNK8SdVolume6fatGetEmPm+0x50>
    26f6:	26 0f       	add	r18, r22
    26f8:	37 1f       	adc	r19, r23
    26fa:	48 1f       	adc	r20, r24
    26fc:	59 1f       	adc	r21, r25
  if (lba != cacheBlockNumber_) {
    26fe:	80 91 28 02 	lds	r24, 0x0228
    2702:	90 91 29 02 	lds	r25, 0x0229
    2706:	a0 91 2a 02 	lds	r26, 0x022A
    270a:	b0 91 2b 02 	lds	r27, 0x022B
    270e:	28 17       	cp	r18, r24
    2710:	39 07       	cpc	r19, r25
    2712:	4a 07       	cpc	r20, r26
    2714:	5b 07       	cpc	r21, r27
    2716:	31 f0       	breq	.+12     	; 0x2724 <_ZNK8SdVolume6fatGetEmPm+0x8a>
    if (!cacheRawBlock(lba, CACHE_FOR_READ)) return false;
    2718:	ca 01       	movw	r24, r20
    271a:	b9 01       	movw	r22, r18
    271c:	40 e0       	ldi	r20, 0x00	; 0
    271e:	a5 dd       	rcall	.-1206   	; 0x226a <_ZN8SdVolume13cacheRawBlockEmh>
    2720:	88 23       	and	r24, r24
    2722:	19 f1       	breq	.+70     	; 0x276a <_ZNK8SdVolume6fatGetEmPm+0xd0>
    2724:	8f 89       	ldd	r24, Y+23	; 0x17
  }
  if (fatType_ == 16) {
    2726:	80 31       	cpi	r24, 0x10	; 16
    2728:	59 f4       	brne	.+22     	; 0x2740 <_ZNK8SdVolume6fatGetEmPm+0xa6>
    272a:	f7 01       	movw	r30, r14
    *value = cacheBuffer_.fat16[cluster & 0XFF];
    272c:	f0 70       	andi	r31, 0x00	; 0
    272e:	ee 0f       	add	r30, r30
    2730:	ff 1f       	adc	r31, r31
    2732:	e6 58       	subi	r30, 0x86	; 134
    2734:	fc 4f       	sbci	r31, 0xFC	; 252
    2736:	80 81       	ld	r24, Z
    2738:	91 81       	ldd	r25, Z+1	; 0x01
    273a:	a0 e0       	ldi	r26, 0x00	; 0
    273c:	b0 e0       	ldi	r27, 0x00	; 0
    273e:	0e c0       	rjmp	.+28     	; 0x275c <_ZNK8SdVolume6fatGetEmPm+0xc2>
    2740:	f7 01       	movw	r30, r14
  } else {
    *value = cacheBuffer_.fat32[cluster & 0X7F] & FAT32MASK;
    2742:	ef 77       	andi	r30, 0x7F	; 127
    2744:	f0 70       	andi	r31, 0x00	; 0
    2746:	ee 0f       	add	r30, r30
    2748:	ff 1f       	adc	r31, r31
    274a:	ee 0f       	add	r30, r30
    274c:	ff 1f       	adc	r31, r31
    274e:	e6 58       	subi	r30, 0x86	; 134
    2750:	fc 4f       	sbci	r31, 0xFC	; 252
    2752:	80 81       	ld	r24, Z
    2754:	91 81       	ldd	r25, Z+1	; 0x01
    2756:	a2 81       	ldd	r26, Z+2	; 0x02
    2758:	b3 81       	ldd	r27, Z+3	; 0x03
    275a:	bf 70       	andi	r27, 0x0F	; 15
    275c:	f6 01       	movw	r30, r12
    275e:	80 83       	st	Z, r24
    2760:	91 83       	std	Z+1, r25	; 0x01
    2762:	a2 83       	std	Z+2, r26	; 0x02
    2764:	b3 83       	std	Z+3, r27	; 0x03
    2766:	81 e0       	ldi	r24, 0x01	; 1
    2768:	01 c0       	rjmp	.+2      	; 0x276c <_ZNK8SdVolume6fatGetEmPm+0xd2>
    276a:	80 e0       	ldi	r24, 0x00	; 0
    276c:	df 91       	pop	r29
  }
  return true;
}
    276e:	cf 91       	pop	r28
    2770:	1f 91       	pop	r17
    2772:	0f 91       	pop	r16
    2774:	ff 90       	pop	r15
    2776:	ef 90       	pop	r14
    2778:	df 90       	pop	r13
    277a:	cf 90       	pop	r12
    277c:	08 95       	ret

0000277e <_ZN8SdVolume9freeChainEm>:
  if (fatCount_ > 1) cacheMirrorBlock_ = lba + blocksPerFat_;
  return true;
}
//------------------------------------------------------------------------------
// free a cluster chain
uint8_t SdVolume::freeChain(uint32_t cluster) {
    277e:	af 92       	push	r10
    2780:	bf 92       	push	r11
    2782:	cf 92       	push	r12
    2784:	df 92       	push	r13
    2786:	ef 92       	push	r14
    2788:	ff 92       	push	r15
    278a:	0f 93       	push	r16
    278c:	1f 93       	push	r17
    278e:	df 93       	push	r29
    2790:	cf 93       	push	r28
    2792:	00 d0       	rcall	.+0      	; 0x2794 <_ZN8SdVolume9freeChainEm+0x16>
    2794:	00 d0       	rcall	.+0      	; 0x2796 <_ZN8SdVolume9freeChainEm+0x18>
    2796:	cd b7       	in	r28, 0x3d	; 61
    2798:	de b7       	in	r29, 0x3e	; 62
    279a:	6c 01       	movw	r12, r24
    279c:	7a 01       	movw	r14, r20
    279e:	8b 01       	movw	r16, r22
  // clear free cluster location
  allocSearchStart_ = 2;
    27a0:	82 e0       	ldi	r24, 0x02	; 2
    27a2:	90 e0       	ldi	r25, 0x00	; 0
    27a4:	a0 e0       	ldi	r26, 0x00	; 0
    27a6:	b0 e0       	ldi	r27, 0x00	; 0
    27a8:	f6 01       	movw	r30, r12
    27aa:	80 83       	st	Z, r24
    27ac:	91 83       	std	Z+1, r25	; 0x01
    27ae:	a2 83       	std	Z+2, r26	; 0x02
    27b0:	b3 83       	std	Z+3, r27	; 0x03

  do {
    uint32_t next;
    if (!fatGet(cluster, &next)) return false;
    27b2:	5e 01       	movw	r10, r28
    27b4:	08 94       	sec
    27b6:	a1 1c       	adc	r10, r1
    27b8:	b1 1c       	adc	r11, r1
    27ba:	c6 01       	movw	r24, r12
    27bc:	b8 01       	movw	r22, r16
    27be:	a7 01       	movw	r20, r14
    27c0:	95 01       	movw	r18, r10
    27c2:	6b df       	rcall	.-298    	; 0x269a <_ZNK8SdVolume6fatGetEmPm>
    27c4:	88 23       	and	r24, r24
    27c6:	11 f1       	breq	.+68     	; 0x280c <_ZN8SdVolume9freeChainEm+0x8e>
    27c8:	c6 01       	movw	r24, r12

    // free cluster
    if (!fatPut(cluster, 0)) return false;
    27ca:	b8 01       	movw	r22, r16
    27cc:	a7 01       	movw	r20, r14
    27ce:	00 e0       	ldi	r16, 0x00	; 0
    27d0:	10 e0       	ldi	r17, 0x00	; 0
    27d2:	20 e0       	ldi	r18, 0x00	; 0
    27d4:	30 e0       	ldi	r19, 0x00	; 0
    27d6:	c6 de       	rcall	.-628    	; 0x2564 <_ZN8SdVolume6fatPutEmm>
    27d8:	88 23       	and	r24, r24
    27da:	c1 f0       	breq	.+48     	; 0x280c <_ZN8SdVolume9freeChainEm+0x8e>
    27dc:	e9 80       	ldd	r14, Y+1	; 0x01
    27de:	fa 80       	ldd	r15, Y+2	; 0x02

    cluster = next;
    27e0:	0b 81       	ldd	r16, Y+3	; 0x03
    27e2:	1c 81       	ldd	r17, Y+4	; 0x04
    27e4:	f6 01       	movw	r30, r12
    27e6:	87 89       	ldd	r24, Z+23	; 0x17
  uint8_t fatPutEOC(uint32_t cluster) {
    return fatPut(cluster, 0x0FFFFFFF);
  }
  uint8_t freeChain(uint32_t cluster);
  uint8_t isEOC(uint32_t cluster) const {
    return  cluster >= (fatType_ == 16 ? FAT16EOC_MIN : FAT32EOC_MIN);
    27e8:	80 31       	cpi	r24, 0x10	; 16
    27ea:	29 f0       	breq	.+10     	; 0x27f6 <_ZN8SdVolume9freeChainEm+0x78>
    27ec:	88 ef       	ldi	r24, 0xF8	; 248
    27ee:	9f ef       	ldi	r25, 0xFF	; 255
    27f0:	af ef       	ldi	r26, 0xFF	; 255
    27f2:	bf e0       	ldi	r27, 0x0F	; 15
    27f4:	04 c0       	rjmp	.+8      	; 0x27fe <_ZN8SdVolume9freeChainEm+0x80>
    27f6:	88 ef       	ldi	r24, 0xF8	; 248
    27f8:	9f ef       	ldi	r25, 0xFF	; 255
    27fa:	a0 e0       	ldi	r26, 0x00	; 0
    27fc:	b0 e0       	ldi	r27, 0x00	; 0
    27fe:	e8 16       	cp	r14, r24
    2800:	f9 06       	cpc	r15, r25
// free a cluster chain
uint8_t SdVolume::freeChain(uint32_t cluster) {
  // clear free cluster location
  allocSearchStart_ = 2;

  do {
    2802:	0a 07       	cpc	r16, r26
    2804:	1b 07       	cpc	r17, r27
    2806:	c8 f2       	brcs	.-78     	; 0x27ba <_ZN8SdVolume9freeChainEm+0x3c>
    2808:	81 e0       	ldi	r24, 0x01	; 1
    280a:	01 c0       	rjmp	.+2      	; 0x280e <_ZN8SdVolume9freeChainEm+0x90>
    280c:	80 e0       	ldi	r24, 0x00	; 0
    280e:	0f 90       	pop	r0
    2810:	0f 90       	pop	r0

    cluster = next;
  } while (!isEOC(cluster));

  return true;
}
    2812:	0f 90       	pop	r0
    2814:	0f 90       	pop	r0
    2816:	cf 91       	pop	r28
    2818:	df 91       	pop	r29
    281a:	1f 91       	pop	r17
    281c:	0f 91       	pop	r16
    281e:	ff 90       	pop	r15
    2820:	ef 90       	pop	r14
    2822:	df 90       	pop	r13
    2824:	cf 90       	pop	r12
    2826:	bf 90       	pop	r11
    2828:	af 90       	pop	r10
    282a:	08 95       	ret

0000282c <_ZNK8SdVolume9chainSizeEmPm>:
  cacheSetDirty();
  return true;
}
//------------------------------------------------------------------------------
// return the size in bytes of a cluster chain
uint8_t SdVolume::chainSize(uint32_t cluster, uint32_t* size) const {
    282c:	4f 92       	push	r4
    282e:	5f 92       	push	r5
    2830:	6f 92       	push	r6
    2832:	7f 92       	push	r7
    2834:	8f 92       	push	r8
    2836:	9f 92       	push	r9
    2838:	af 92       	push	r10
    283a:	bf 92       	push	r11
    283c:	cf 92       	push	r12
    283e:	df 92       	push	r13
    2840:	ef 92       	push	r14
    2842:	ff 92       	push	r15
    2844:	0f 93       	push	r16
    2846:	1f 93       	push	r17
    2848:	df 93       	push	r29
    284a:	cf 93       	push	r28
    284c:	00 d0       	rcall	.+0      	; 0x284e <_ZNK8SdVolume9chainSizeEmPm+0x22>
    284e:	00 d0       	rcall	.+0      	; 0x2850 <_ZNK8SdVolume9chainSizeEmPm+0x24>
    2850:	cd b7       	in	r28, 0x3d	; 61
    2852:	de b7       	in	r29, 0x3e	; 62
    2854:	6c 01       	movw	r12, r24
    2856:	49 83       	std	Y+1, r20	; 0x01
    2858:	5a 83       	std	Y+2, r21	; 0x02
    285a:	6b 83       	std	Y+3, r22	; 0x03
    285c:	7c 83       	std	Y+4, r23	; 0x04
    285e:	39 01       	movw	r6, r18
    2860:	ee 24       	eor	r14, r14
    2862:	ff 24       	eor	r15, r15
    2864:	87 01       	movw	r16, r14
  uint32_t s = 0;
  do {
    if (!fatGet(cluster, &cluster)) return false;
    2866:	2e 01       	movw	r4, r28
    2868:	08 94       	sec
    286a:	41 1c       	adc	r4, r1
    286c:	51 1c       	adc	r5, r1
    s += 512UL << clusterSizeShift_;
    286e:	81 2c       	mov	r8, r1
    2870:	a2 e0       	ldi	r26, 0x02	; 2
    2872:	9a 2e       	mov	r9, r26
    2874:	a1 2c       	mov	r10, r1
    2876:	b1 2c       	mov	r11, r1
//------------------------------------------------------------------------------
// return the size in bytes of a cluster chain
uint8_t SdVolume::chainSize(uint32_t cluster, uint32_t* size) const {
  uint32_t s = 0;
  do {
    if (!fatGet(cluster, &cluster)) return false;
    2878:	49 81       	ldd	r20, Y+1	; 0x01
    287a:	5a 81       	ldd	r21, Y+2	; 0x02
    287c:	6b 81       	ldd	r22, Y+3	; 0x03
    287e:	7c 81       	ldd	r23, Y+4	; 0x04
    2880:	c6 01       	movw	r24, r12
    2882:	92 01       	movw	r18, r4
    2884:	0a df       	rcall	.-492    	; 0x269a <_ZNK8SdVolume6fatGetEmPm>
    2886:	88 23       	and	r24, r24
    2888:	51 f1       	breq	.+84     	; 0x28de <_ZNK8SdVolume9chainSizeEmPm+0xb2>
    288a:	d5 01       	movw	r26, r10
    s += 512UL << clusterSizeShift_;
    288c:	c4 01       	movw	r24, r8
    288e:	f6 01       	movw	r30, r12
    2890:	05 84       	ldd	r0, Z+13	; 0x0d
    2892:	04 c0       	rjmp	.+8      	; 0x289c <_ZNK8SdVolume9chainSizeEmPm+0x70>
    2894:	88 0f       	add	r24, r24
    2896:	99 1f       	adc	r25, r25
    2898:	aa 1f       	adc	r26, r26
    289a:	bb 1f       	adc	r27, r27
    289c:	0a 94       	dec	r0
    289e:	d2 f7       	brpl	.-12     	; 0x2894 <_ZNK8SdVolume9chainSizeEmPm+0x68>
    28a0:	e8 0e       	add	r14, r24
    28a2:	f9 1e       	adc	r15, r25
    28a4:	0a 1f       	adc	r16, r26
    28a6:	1b 1f       	adc	r17, r27
    28a8:	29 81       	ldd	r18, Y+1	; 0x01
}
//------------------------------------------------------------------------------
// return the size in bytes of a cluster chain
uint8_t SdVolume::chainSize(uint32_t cluster, uint32_t* size) const {
  uint32_t s = 0;
  do {
    28aa:	3a 81       	ldd	r19, Y+2	; 0x02
    28ac:	4b 81       	ldd	r20, Y+3	; 0x03
    28ae:	5c 81       	ldd	r21, Y+4	; 0x04
    28b0:	87 89       	ldd	r24, Z+23	; 0x17
    28b2:	80 31       	cpi	r24, 0x10	; 16
    28b4:	29 f0       	breq	.+10     	; 0x28c0 <_ZNK8SdVolume9chainSizeEmPm+0x94>
    28b6:	88 ef       	ldi	r24, 0xF8	; 248
    28b8:	9f ef       	ldi	r25, 0xFF	; 255
    28ba:	af ef       	ldi	r26, 0xFF	; 255
    28bc:	bf e0       	ldi	r27, 0x0F	; 15
    28be:	04 c0       	rjmp	.+8      	; 0x28c8 <_ZNK8SdVolume9chainSizeEmPm+0x9c>
    28c0:	88 ef       	ldi	r24, 0xF8	; 248
    28c2:	9f ef       	ldi	r25, 0xFF	; 255
    28c4:	a0 e0       	ldi	r26, 0x00	; 0
    28c6:	b0 e0       	ldi	r27, 0x00	; 0
    28c8:	28 17       	cp	r18, r24
    28ca:	39 07       	cpc	r19, r25
    28cc:	4a 07       	cpc	r20, r26
    28ce:	5b 07       	cpc	r21, r27
    28d0:	98 f2       	brcs	.-90     	; 0x2878 <_ZNK8SdVolume9chainSizeEmPm+0x4c>
    28d2:	f3 01       	movw	r30, r6
    if (!fatGet(cluster, &cluster)) return false;
    s += 512UL << clusterSizeShift_;
  } while (!isEOC(cluster));
  *size = s;
    28d4:	e0 82       	st	Z, r14
    28d6:	f1 82       	std	Z+1, r15	; 0x01
    28d8:	02 83       	std	Z+2, r16	; 0x02
    28da:	13 83       	std	Z+3, r17	; 0x03
    28dc:	81 e0       	ldi	r24, 0x01	; 1
    28de:	0f 90       	pop	r0
  return true;
}
    28e0:	0f 90       	pop	r0
    28e2:	0f 90       	pop	r0
    28e4:	0f 90       	pop	r0
    28e6:	cf 91       	pop	r28
    28e8:	df 91       	pop	r29
    28ea:	1f 91       	pop	r17
    28ec:	0f 91       	pop	r16
    28ee:	ff 90       	pop	r15
    28f0:	ef 90       	pop	r14
    28f2:	df 90       	pop	r13
    28f4:	cf 90       	pop	r12
    28f6:	bf 90       	pop	r11
    28f8:	af 90       	pop	r10
    28fa:	9f 90       	pop	r9
    28fc:	8f 90       	pop	r8
    28fe:	7f 90       	pop	r7
    2900:	6f 90       	pop	r6
    2902:	5f 90       	pop	r5
    2904:	4f 90       	pop	r4
    2906:	08 95       	ret

00002908 <_ZN8SdVolume15allocContiguousEmPm>:
Sd2Card* SdVolume::sdCard_;          // pointer to SD card object
uint8_t  SdVolume::cacheDirty_ = 0;  // cacheFlush() will write block if true
uint32_t SdVolume::cacheMirrorBlock_ = 0;  // mirror  block for second FAT
//------------------------------------------------------------------------------
// find a contiguous group of clusters
uint8_t SdVolume::allocContiguous(uint32_t count, uint32_t* curCluster) {
    2908:	2f 92       	push	r2
    290a:	3f 92       	push	r3
    290c:	4f 92       	push	r4
    290e:	5f 92       	push	r5
    2910:	6f 92       	push	r6
    2912:	7f 92       	push	r7
    2914:	8f 92       	push	r8
    2916:	9f 92       	push	r9
    2918:	af 92       	push	r10
    291a:	bf 92       	push	r11
    291c:	cf 92       	push	r12
    291e:	df 92       	push	r13
    2920:	ef 92       	push	r14
    2922:	ff 92       	push	r15
    2924:	0f 93       	push	r16
    2926:	1f 93       	push	r17
    2928:	df 93       	push	r29
    292a:	cf 93       	push	r28
    292c:	cd b7       	in	r28, 0x3d	; 61
    292e:	de b7       	in	r29, 0x3e	; 62
    2930:	2f 97       	sbiw	r28, 0x0f	; 15
    2932:	0f b6       	in	r0, 0x3f	; 63
    2934:	f8 94       	cli
    2936:	de bf       	out	0x3e, r29	; 62
    2938:	0f be       	out	0x3f, r0	; 63
    293a:	cd bf       	out	0x3d, r28	; 61
    293c:	1c 01       	movw	r2, r24
    293e:	4a 87       	std	Y+10, r20	; 0x0a
    2940:	5b 87       	std	Y+11, r21	; 0x0b
    2942:	6c 87       	std	Y+12, r22	; 0x0c
    2944:	7d 87       	std	Y+13, r23	; 0x0d
    2946:	3f 87       	std	Y+15, r19	; 0x0f
    2948:	2e 87       	std	Y+14, r18	; 0x0e

  // flag to save place to start next search
  uint8_t setStart;

  // set search start cluster
  if (*curCluster) {
    294a:	d9 01       	movw	r26, r18
    294c:	0d 91       	ld	r16, X+
    294e:	1d 91       	ld	r17, X+
    2950:	2d 91       	ld	r18, X+
    2952:	3c 91       	ld	r19, X
    2954:	01 15       	cp	r16, r1
    2956:	11 05       	cpc	r17, r1
    2958:	21 05       	cpc	r18, r1
    295a:	31 05       	cpc	r19, r1
    295c:	49 f0       	breq	.+18     	; 0x2970 <_ZN8SdVolume15allocContiguousEmPm+0x68>
    // try to make file contiguous
    bgnCluster = *curCluster + 1;
    295e:	48 01       	movw	r8, r16
    2960:	59 01       	movw	r10, r18
    2962:	08 94       	sec
    2964:	81 1c       	adc	r8, r1
    2966:	91 1c       	adc	r9, r1
    2968:	a1 1c       	adc	r10, r1
    296a:	b1 1c       	adc	r11, r1
    296c:	19 86       	std	Y+9, r1	; 0x09
    296e:	10 c0       	rjmp	.+32     	; 0x2990 <_ZN8SdVolume15allocContiguousEmPm+0x88>

    // don't save new start location
    setStart = false;
  } else {
    // start at likely place for free cluster
    bgnCluster = allocSearchStart_;
    2970:	fc 01       	movw	r30, r24
    2972:	80 80       	ld	r8, Z
    2974:	91 80       	ldd	r9, Z+1	; 0x01
    2976:	a2 80       	ldd	r10, Z+2	; 0x02
    2978:	b3 80       	ldd	r11, Z+3	; 0x03

    // save next search start if one cluster
    setStart = 1 == count;
    297a:	19 86       	std	Y+9, r1	; 0x09
    297c:	8a 85       	ldd	r24, Y+10	; 0x0a
    297e:	9b 85       	ldd	r25, Y+11	; 0x0b
    2980:	ac 85       	ldd	r26, Y+12	; 0x0c
    2982:	bd 85       	ldd	r27, Y+13	; 0x0d
    2984:	01 97       	sbiw	r24, 0x01	; 1
    2986:	a1 05       	cpc	r26, r1
    2988:	b1 05       	cpc	r27, r1
    298a:	11 f4       	brne	.+4      	; 0x2990 <_ZN8SdVolume15allocContiguousEmPm+0x88>
    298c:	91 e0       	ldi	r25, 0x01	; 1
    298e:	99 87       	std	Y+9, r25	; 0x09
  }
  // end of group
  uint32_t endCluster = bgnCluster;

  // last cluster of FAT
  uint32_t fatEnd = clusterCount_ + 1;
    2990:	d1 01       	movw	r26, r2
    2992:	19 96       	adiw	r26, 0x09	; 9
    2994:	8d 91       	ld	r24, X+
    2996:	9d 91       	ld	r25, X+
    2998:	0d 90       	ld	r0, X+
    299a:	bc 91       	ld	r27, X
    299c:	a0 2d       	mov	r26, r0
    299e:	01 96       	adiw	r24, 0x01	; 1
    29a0:	a1 1d       	adc	r26, r1
    29a2:	b1 1d       	adc	r27, r1
    29a4:	8d 83       	std	Y+5, r24	; 0x05
    29a6:	9e 83       	std	Y+6, r25	; 0x06
    29a8:	af 83       	std	Y+7, r26	; 0x07
    29aa:	b8 87       	std	Y+8, r27	; 0x08
    29ac:	75 01       	movw	r14, r10
    29ae:	64 01       	movw	r12, r8
    29b0:	44 24       	eor	r4, r4
    29b2:	55 24       	eor	r5, r5
    29b4:	32 01       	movw	r6, r4
    // past end - start from beginning of FAT
    if (endCluster > fatEnd) {
      bgnCluster = endCluster = 2;
    }
    uint32_t f;
    if (!fatGet(endCluster, &f)) return false;
    29b6:	8e 01       	movw	r16, r28
    29b8:	0f 5f       	subi	r16, 0xFF	; 255
    29ba:	1f 4f       	sbci	r17, 0xFF	; 255
  uint32_t fatEnd = clusterCount_ + 1;

  // search the FAT for free clusters
  for (uint32_t n = 0;; n++, endCluster++) {
    // can't find space checked all clusters
    if (n >= clusterCount_) return false;
    29bc:	f1 01       	movw	r30, r2
    29be:	81 85       	ldd	r24, Z+9	; 0x09
    29c0:	92 85       	ldd	r25, Z+10	; 0x0a
    29c2:	a3 85       	ldd	r26, Z+11	; 0x0b
    29c4:	b4 85       	ldd	r27, Z+12	; 0x0c
    29c6:	48 16       	cp	r4, r24
    29c8:	59 06       	cpc	r5, r25
    29ca:	6a 06       	cpc	r6, r26
    29cc:	7b 06       	cpc	r7, r27
    29ce:	08 f0       	brcs	.+2      	; 0x29d2 <_ZN8SdVolume15allocContiguousEmPm+0xca>
    29d0:	8c c0       	rjmp	.+280    	; 0x2aea <_ZN8SdVolume15allocContiguousEmPm+0x1e2>

    // past end - start from beginning of FAT
    if (endCluster > fatEnd) {
    29d2:	8d 81       	ldd	r24, Y+5	; 0x05
    29d4:	9e 81       	ldd	r25, Y+6	; 0x06
    29d6:	af 81       	ldd	r26, Y+7	; 0x07
    29d8:	b8 85       	ldd	r27, Y+8	; 0x08
    29da:	8c 15       	cp	r24, r12
    29dc:	9d 05       	cpc	r25, r13
    29de:	ae 05       	cpc	r26, r14
    29e0:	bf 05       	cpc	r27, r15
    29e2:	50 f4       	brcc	.+20     	; 0x29f8 <_ZN8SdVolume15allocContiguousEmPm+0xf0>
    29e4:	82 e0       	ldi	r24, 0x02	; 2
    29e6:	88 2e       	mov	r8, r24
    29e8:	91 2c       	mov	r9, r1
    29ea:	a1 2c       	mov	r10, r1
    29ec:	b1 2c       	mov	r11, r1
    29ee:	b2 e0       	ldi	r27, 0x02	; 2
    29f0:	cb 2e       	mov	r12, r27
    29f2:	d1 2c       	mov	r13, r1
    29f4:	e1 2c       	mov	r14, r1
    29f6:	f1 2c       	mov	r15, r1
      bgnCluster = endCluster = 2;
    }
    uint32_t f;
    if (!fatGet(endCluster, &f)) return false;
    29f8:	c1 01       	movw	r24, r2
    29fa:	b7 01       	movw	r22, r14
    29fc:	a6 01       	movw	r20, r12
    29fe:	98 01       	movw	r18, r16
    2a00:	4c de       	rcall	.-872    	; 0x269a <_ZNK8SdVolume6fatGetEmPm>
    2a02:	88 23       	and	r24, r24
    2a04:	09 f4       	brne	.+2      	; 0x2a08 <_ZN8SdVolume15allocContiguousEmPm+0x100>
    2a06:	71 c0       	rjmp	.+226    	; 0x2aea <_ZN8SdVolume15allocContiguousEmPm+0x1e2>
    2a08:	89 81       	ldd	r24, Y+1	; 0x01

    if (f != 0) {
    2a0a:	9a 81       	ldd	r25, Y+2	; 0x02
    2a0c:	ab 81       	ldd	r26, Y+3	; 0x03
    2a0e:	bc 81       	ldd	r27, Y+4	; 0x04
    2a10:	a7 01       	movw	r20, r14
    2a12:	96 01       	movw	r18, r12
    2a14:	2f 5f       	subi	r18, 0xFF	; 255
    2a16:	3f 4f       	sbci	r19, 0xFF	; 255
    2a18:	4f 4f       	sbci	r20, 0xFF	; 255
    2a1a:	5f 4f       	sbci	r21, 0xFF	; 255
    2a1c:	00 97       	sbiw	r24, 0x00	; 0
    2a1e:	a1 05       	cpc	r26, r1
    2a20:	b1 05       	cpc	r27, r1
    2a22:	19 f0       	breq	.+6      	; 0x2a2a <_ZN8SdVolume15allocContiguousEmPm+0x122>
    2a24:	49 01       	movw	r8, r18
      // cluster in use try next cluster as bgnCluster
      bgnCluster = endCluster + 1;
    2a26:	5a 01       	movw	r10, r20
    2a28:	0d c0       	rjmp	.+26     	; 0x2a44 <_ZN8SdVolume15allocContiguousEmPm+0x13c>
    2a2a:	28 19       	sub	r18, r8
    } else if ((endCluster - bgnCluster + 1) == count) {
    2a2c:	39 09       	sbc	r19, r9
    2a2e:	4a 09       	sbc	r20, r10
    2a30:	5b 09       	sbc	r21, r11
    2a32:	8a 85       	ldd	r24, Y+10	; 0x0a
    2a34:	9b 85       	ldd	r25, Y+11	; 0x0b
    2a36:	ac 85       	ldd	r26, Y+12	; 0x0c
    2a38:	bd 85       	ldd	r27, Y+13	; 0x0d
    2a3a:	28 17       	cp	r18, r24
    2a3c:	39 07       	cpc	r19, r25
    2a3e:	4a 07       	cpc	r20, r26
    2a40:	5b 07       	cpc	r21, r27
    2a42:	59 f0       	breq	.+22     	; 0x2a5a <_ZN8SdVolume15allocContiguousEmPm+0x152>
    2a44:	08 94       	sec

  // last cluster of FAT
  uint32_t fatEnd = clusterCount_ + 1;

  // search the FAT for free clusters
  for (uint32_t n = 0;; n++, endCluster++) {
    2a46:	41 1c       	adc	r4, r1
    2a48:	51 1c       	adc	r5, r1
    2a4a:	61 1c       	adc	r6, r1
    2a4c:	71 1c       	adc	r7, r1
    2a4e:	08 94       	sec
    2a50:	c1 1c       	adc	r12, r1
    2a52:	d1 1c       	adc	r13, r1
    2a54:	e1 1c       	adc	r14, r1
    2a56:	f1 1c       	adc	r15, r1
    2a58:	b1 cf       	rjmp	.-158    	; 0x29bc <_ZN8SdVolume15allocContiguousEmPm+0xb4>
    2a5a:	c1 01       	movw	r24, r2
  static uint8_t cacheZeroBlock(uint32_t blockNumber);
  uint8_t chainSize(uint32_t beginCluster, uint32_t* size) const;
  uint8_t fatGet(uint32_t cluster, uint32_t* value) const;
  uint8_t fatPut(uint32_t cluster, uint32_t value);
  uint8_t fatPutEOC(uint32_t cluster) {
    return fatPut(cluster, 0x0FFFFFFF);
    2a5c:	a6 01       	movw	r20, r12
    2a5e:	b7 01       	movw	r22, r14
    2a60:	0f ef       	ldi	r16, 0xFF	; 255
    2a62:	1f ef       	ldi	r17, 0xFF	; 255
    2a64:	2f ef       	ldi	r18, 0xFF	; 255
    2a66:	3f e0       	ldi	r19, 0x0F	; 15
    2a68:	7d dd       	rcall	.-1286   	; 0x2564 <_ZN8SdVolume6fatPutEmm>
    2a6a:	88 23       	and	r24, r24
    2a6c:	91 f4       	brne	.+36     	; 0x2a92 <_ZN8SdVolume15allocContiguousEmPm+0x18a>
      // done - found space
      break;
    }
  }
  // mark end of chain
  if (!fatPutEOC(endCluster)) return false;
    2a6e:	3d c0       	rjmp	.+122    	; 0x2aea <_ZN8SdVolume15allocContiguousEmPm+0x1e2>
    2a70:	26 01       	movw	r4, r12
    2a72:	37 01       	movw	r6, r14

  // link clusters
  while (endCluster > bgnCluster) {
    if (!fatPut(endCluster - 1, endCluster)) return false;
    2a74:	08 94       	sec
    2a76:	41 08       	sbc	r4, r1
    2a78:	51 08       	sbc	r5, r1
    2a7a:	61 08       	sbc	r6, r1
    2a7c:	71 08       	sbc	r7, r1
    2a7e:	c1 01       	movw	r24, r2
    2a80:	b3 01       	movw	r22, r6
    2a82:	a2 01       	movw	r20, r4
    2a84:	97 01       	movw	r18, r14
    2a86:	86 01       	movw	r16, r12
    2a88:	6d dd       	rcall	.-1318   	; 0x2564 <_ZN8SdVolume6fatPutEmm>
    2a8a:	88 23       	and	r24, r24
    2a8c:	71 f1       	breq	.+92     	; 0x2aea <_ZN8SdVolume15allocContiguousEmPm+0x1e2>
    2a8e:	73 01       	movw	r14, r6
    2a90:	62 01       	movw	r12, r4
    2a92:	8c 14       	cp	r8, r12
    2a94:	9d 04       	cpc	r9, r13
    2a96:	ae 04       	cpc	r10, r14
  }
  // mark end of chain
  if (!fatPutEOC(endCluster)) return false;

  // link clusters
  while (endCluster > bgnCluster) {
    2a98:	bf 04       	cpc	r11, r15
    2a9a:	50 f3       	brcs	.-44     	; 0x2a70 <_ZN8SdVolume15allocContiguousEmPm+0x168>
    2a9c:	ae 85       	ldd	r26, Y+14	; 0x0e
    2a9e:	bf 85       	ldd	r27, Y+15	; 0x0f
    2aa0:	4d 91       	ld	r20, X+
    if (!fatPut(endCluster - 1, endCluster)) return false;
    endCluster--;
  }
  if (*curCluster != 0) {
    2aa2:	5d 91       	ld	r21, X+
    2aa4:	6d 91       	ld	r22, X+
    2aa6:	7c 91       	ld	r23, X
    2aa8:	41 15       	cp	r20, r1
    2aaa:	51 05       	cpc	r21, r1
    2aac:	61 05       	cpc	r22, r1
    2aae:	71 05       	cpc	r23, r1
    2ab0:	31 f0       	breq	.+12     	; 0x2abe <_ZN8SdVolume15allocContiguousEmPm+0x1b6>
    2ab2:	c1 01       	movw	r24, r2
    2ab4:	95 01       	movw	r18, r10
    2ab6:	84 01       	movw	r16, r8
    // connect chains
    if (!fatPut(*curCluster, bgnCluster)) return false;
    2ab8:	55 dd       	rcall	.-1366   	; 0x2564 <_ZN8SdVolume6fatPutEmm>
    2aba:	88 23       	and	r24, r24
    2abc:	b1 f0       	breq	.+44     	; 0x2aea <_ZN8SdVolume15allocContiguousEmPm+0x1e2>
    2abe:	ee 85       	ldd	r30, Y+14	; 0x0e
    2ac0:	ff 85       	ldd	r31, Y+15	; 0x0f
    2ac2:	80 82       	st	Z, r8
    2ac4:	91 82       	std	Z+1, r9	; 0x01
  }
  // return first cluster number to caller
  *curCluster = bgnCluster;
    2ac6:	a2 82       	std	Z+2, r10	; 0x02
    2ac8:	b3 82       	std	Z+3, r11	; 0x03
    2aca:	f9 85       	ldd	r31, Y+9	; 0x09
    2acc:	ff 23       	and	r31, r31
    2ace:	59 f0       	breq	.+22     	; 0x2ae6 <_ZN8SdVolume15allocContiguousEmPm+0x1de>
    2ad0:	08 94       	sec

  // remember possible next free cluster
  if (setStart) allocSearchStart_ = bgnCluster + 1;
    2ad2:	81 1c       	adc	r8, r1
    2ad4:	91 1c       	adc	r9, r1
    2ad6:	a1 1c       	adc	r10, r1
    2ad8:	b1 1c       	adc	r11, r1
    2ada:	d1 01       	movw	r26, r2
    2adc:	8d 92       	st	X+, r8
    2ade:	9d 92       	st	X+, r9
    2ae0:	ad 92       	st	X+, r10
    2ae2:	bc 92       	st	X, r11
    2ae4:	13 97       	sbiw	r26, 0x03	; 3
    2ae6:	81 e0       	ldi	r24, 0x01	; 1
    2ae8:	01 c0       	rjmp	.+2      	; 0x2aec <_ZN8SdVolume15allocContiguousEmPm+0x1e4>
    2aea:	80 e0       	ldi	r24, 0x00	; 0
    2aec:	2f 96       	adiw	r28, 0x0f	; 15
    2aee:	0f b6       	in	r0, 0x3f	; 63
    2af0:	f8 94       	cli
    2af2:	de bf       	out	0x3e, r29	; 62

  return true;
}
    2af4:	0f be       	out	0x3f, r0	; 63
    2af6:	cd bf       	out	0x3d, r28	; 61
    2af8:	cf 91       	pop	r28
    2afa:	df 91       	pop	r29
    2afc:	1f 91       	pop	r17
    2afe:	0f 91       	pop	r16
    2b00:	ff 90       	pop	r15
    2b02:	ef 90       	pop	r14
    2b04:	df 90       	pop	r13
    2b06:	cf 90       	pop	r12
    2b08:	bf 90       	pop	r11
    2b0a:	af 90       	pop	r10
    2b0c:	9f 90       	pop	r9
    2b0e:	8f 90       	pop	r8
    2b10:	7f 90       	pop	r7
    2b12:	6f 90       	pop	r6
    2b14:	5f 90       	pop	r5
    2b16:	4f 90       	pop	r4
    2b18:	3f 90       	pop	r3
    2b1a:	2f 90       	pop	r2
    2b1c:	08 95       	ret

00002b1e <_ZN11EEPROMClass4readEi>:
/** \ingroup avr_eeprom
    Read one byte from EEPROM address \a __p.
 */
__ATTR_PURE__ static __inline__ uint8_t eeprom_read_byte (const uint8_t *__p)
{
    do {} while (!eeprom_is_ready ());
    2b1e:	f9 99       	sbic	0x1f, 1	; 31
    2b20:	fe cf       	rjmp	.-4      	; 0x2b1e <_ZN11EEPROMClass4readEi>
#if E2END <= 0xFF
    EEARL = (uint8_t)(uint16_t)__p;
#else
    EEAR = (uint16_t)__p;
    2b22:	72 bd       	out	0x22, r23	; 34
    2b24:	61 bd       	out	0x21, r22	; 33
        "/* END EEPROM READ CRITICAL SECTION */ \n\t"
        : "=r" (__result)
        : "i" (_SFR_IO_ADDR(EECR)),
          "i" (EERE),
          "i" (_SFR_IO_ADDR(EEDR))
    );
    2b26:	f8 9a       	sbi	0x1f, 0	; 31
    2b28:	80 b5       	in	r24, 0x20	; 32
 ******************************************************************************/

uint8_t EEPROMClass::read(int address)
{
	return eeprom_read_byte((unsigned char *) address);
}
    2b2a:	08 95       	ret

00002b2c <_ZN11EEPROMClass5writeEih>:
/** \ingroup avr_eeprom
    Write a byte \a __value to EEPROM address \a __p.
 */
static __inline__ void eeprom_write_byte (uint8_t *__p, uint8_t __value)
{
    do {} while (!eeprom_is_ready ());
    2b2c:	f9 99       	sbic	0x1f, 1	; 31
    2b2e:	fe cf       	rjmp	.-4      	; 0x2b2c <_ZN11EEPROMClass5writeEih>

#if	defined(EEPM0) && defined(EEPM1)
    EECR = 0;		/* Set programming mode: erase and write.	*/
    2b30:	1f ba       	out	0x1f, r1	; 31
#endif

#if	E2END <= 0xFF
    EEARL = (unsigned)__p;
#else
    EEAR = (unsigned)__p;
    2b32:	72 bd       	out	0x22, r23	; 34
    2b34:	61 bd       	out	0x21, r22	; 33
#endif
    EEDR = __value;
    2b36:	40 bd       	out	0x20, r20	; 32
        : [__eecr]  "i" (_SFR_IO_ADDR(EECR)),
          [__sreg]  "i" (_SFR_IO_ADDR(SREG)),
          [__eemwe] "i" (EEMWE),
          [__eewe]  "i" (EEWE)
        : "r0"
    );
    2b38:	0f b6       	in	r0, 0x3f	; 63
    2b3a:	f8 94       	cli
    2b3c:	fa 9a       	sbi	0x1f, 2	; 31
    2b3e:	f9 9a       	sbi	0x1f, 1	; 31
    2b40:	0f be       	out	0x3f, r0	; 63

void EEPROMClass::write(int address, uint8_t value)
{
	eeprom_write_byte((unsigned char *) address, value);
}
    2b42:	08 95       	ret

00002b44 <_ZN4FileC1Ev>:
       Serial.println(nfilecount, DEC);
    */
  }
}

File::File(void) {
    2b44:	fc 01       	movw	r30, r24
  public:
    Print() : write_error(0) {}
    2b46:	13 82       	std	Z+3, r1	; 0x03
    2b48:	12 82       	std	Z+2, r1	; 0x02
    virtual int available() = 0;
    virtual int read() = 0;
    virtual int peek() = 0;
    virtual void flush() = 0;

    Stream() {_timeout=1000;}
    2b4a:	88 ee       	ldi	r24, 0xE8	; 232
    2b4c:	93 e0       	ldi	r25, 0x03	; 3
    2b4e:	a0 e0       	ldi	r26, 0x00	; 0
    2b50:	b0 e0       	ldi	r27, 0x00	; 0
    2b52:	84 83       	std	Z+4, r24	; 0x04
    2b54:	95 83       	std	Z+5, r25	; 0x05
    2b56:	a6 83       	std	Z+6, r26	; 0x06
    2b58:	b7 83       	std	Z+7, r27	; 0x07
    2b5a:	8e e3       	ldi	r24, 0x3E	; 62
    2b5c:	92 e0       	ldi	r25, 0x02	; 2
    2b5e:	91 83       	std	Z+1, r25	; 0x01
    2b60:	80 83       	st	Z, r24
  _file = 0;
    2b62:	12 8e       	std	Z+26, r1	; 0x1a
    2b64:	11 8e       	std	Z+25, r1	; 0x19
  _name[0] = 0;
    2b66:	14 86       	std	Z+12, r1	; 0x0c
  //Serial.print("Created empty file object");
}
    2b68:	08 95       	ret

00002b6a <_ZN4FileD1Ev>:

File::~File(void) {
    2b6a:	fc 01       	movw	r30, r24
    2b6c:	8e e3       	ldi	r24, 0x3E	; 62
    2b6e:	92 e0       	ldi	r25, 0x02	; 2
    2b70:	91 83       	std	Z+1, r25	; 0x01
    2b72:	80 83       	st	Z, r24
  //  Serial.print("Deleted file object");
}
    2b74:	08 95       	ret

00002b76 <_ZN4File5writeEh>:
boolean File::isDirectory(void) {
  return (_file && _file->isDir());
}


size_t File::write(uint8_t val) {
    2b76:	df 93       	push	r29
    2b78:	cf 93       	push	r28
    2b7a:	0f 92       	push	r0
    2b7c:	cd b7       	in	r28, 0x3d	; 61
    2b7e:	de b7       	in	r29, 0x3e	; 62
    2b80:	fc 01       	movw	r30, r24
    2b82:	69 83       	std	Y+1, r22	; 0x01
  return write(&val, 1);
    2b84:	a0 81       	ld	r26, Z
    2b86:	b1 81       	ldd	r27, Z+1	; 0x01
    2b88:	12 96       	adiw	r26, 0x02	; 2
    2b8a:	2d 91       	ld	r18, X+
    2b8c:	3c 91       	ld	r19, X
    2b8e:	13 97       	sbiw	r26, 0x03	; 3
    2b90:	be 01       	movw	r22, r28
    2b92:	6f 5f       	subi	r22, 0xFF	; 255
    2b94:	7f 4f       	sbci	r23, 0xFF	; 255
    2b96:	41 e0       	ldi	r20, 0x01	; 1
    2b98:	50 e0       	ldi	r21, 0x00	; 0
    2b9a:	f9 01       	movw	r30, r18
    2b9c:	09 95       	icall
}
    2b9e:	0f 90       	pop	r0
    2ba0:	cf 91       	pop	r28
    2ba2:	df 91       	pop	r29
    2ba4:	08 95       	ret

00002ba6 <_ZN4File9availableEv>:
    return _file->read(buf, nbyte);
  return 0;
}

int File::available() {
  if (! _file) return 0;
    2ba6:	dc 01       	movw	r26, r24
    2ba8:	59 96       	adiw	r26, 0x19	; 25
    2baa:	ed 91       	ld	r30, X+
    2bac:	fc 91       	ld	r31, X
    2bae:	5a 97       	sbiw	r26, 0x1a	; 26
    2bb0:	30 97       	sbiw	r30, 0x00	; 0
    2bb2:	19 f4       	brne	.+6      	; 0x2bba <_ZN4File9availableEv+0x14>
    2bb4:	20 e0       	ldi	r18, 0x00	; 0
    2bb6:	30 e0       	ldi	r19, 0x00	; 0
    2bb8:	18 c0       	rjmp	.+48     	; 0x2bea <_ZN4File9availableEv+0x44>

  uint32_t n = size() - position();

  return n > 0X7FFF ? 0X7FFF : n;
    2bba:	23 89       	ldd	r18, Z+19	; 0x13
    2bbc:	34 89       	ldd	r19, Z+20	; 0x14
    2bbe:	45 89       	ldd	r20, Z+21	; 0x15
    2bc0:	56 89       	ldd	r21, Z+22	; 0x16
    2bc2:	82 85       	ldd	r24, Z+10	; 0x0a
    2bc4:	93 85       	ldd	r25, Z+11	; 0x0b
    2bc6:	a4 85       	ldd	r26, Z+12	; 0x0c
    2bc8:	b5 85       	ldd	r27, Z+13	; 0x0d
    2bca:	28 1b       	sub	r18, r24
    2bcc:	39 0b       	sbc	r19, r25
    2bce:	4a 0b       	sbc	r20, r26
    2bd0:	5b 0b       	sbc	r21, r27
    2bd2:	20 30       	cpi	r18, 0x00	; 0
    2bd4:	b0 e8       	ldi	r27, 0x80	; 128
    2bd6:	3b 07       	cpc	r19, r27
    2bd8:	b0 e0       	ldi	r27, 0x00	; 0
    2bda:	4b 07       	cpc	r20, r27
    2bdc:	b0 e0       	ldi	r27, 0x00	; 0
    2bde:	5b 07       	cpc	r21, r27
    2be0:	20 f0       	brcs	.+8      	; 0x2bea <_ZN4File9availableEv+0x44>
    2be2:	2f ef       	ldi	r18, 0xFF	; 255
    2be4:	3f e7       	ldi	r19, 0x7F	; 127
    2be6:	40 e0       	ldi	r20, 0x00	; 0
    2be8:	50 e0       	ldi	r21, 0x00	; 0
}
    2bea:	c9 01       	movw	r24, r18
    2bec:	08 95       	ret

00002bee <_ZN4FilecvbEv>:
    */
  }
}

File::operator bool() {
  if (_file) 
    2bee:	dc 01       	movw	r26, r24
    2bf0:	59 96       	adiw	r26, 0x19	; 25
    2bf2:	ed 91       	ld	r30, X+
    2bf4:	fc 91       	ld	r31, X
    2bf6:	5a 97       	sbiw	r26, 0x1a	; 26
    2bf8:	30 97       	sbiw	r30, 0x00	; 0
    2bfa:	11 f4       	brne	.+4      	; 0x2c00 <_ZN4FilecvbEv+0x12>
    2bfc:	80 e0       	ldi	r24, 0x00	; 0
    2bfe:	08 95       	ret
    return  _file->isOpen();
    2c00:	85 81       	ldd	r24, Z+5	; 0x05
    2c02:	81 11       	cpse	r24, r1
    2c04:	81 e0       	ldi	r24, 0x01	; 1
  return false;
}
    2c06:	08 95       	ret

00002c08 <_ZN4File5closeEv>:
uint32_t File::size() {
  if (! _file) return 0;
  return _file->fileSize();
}

void File::close() {
    2c08:	cf 93       	push	r28
    2c0a:	df 93       	push	r29
    2c0c:	ec 01       	movw	r28, r24
  if (_file) {
    2c0e:	89 8d       	ldd	r24, Y+25	; 0x19
    2c10:	9a 8d       	ldd	r25, Y+26	; 0x1a
    2c12:	00 97       	sbiw	r24, 0x00	; 0
    2c14:	39 f0       	breq	.+14     	; 0x2c24 <_ZN4File5closeEv+0x1c>
    _file->close();
    2c16:	0e 94 a4 0a 	call	0x1548	; 0x1548 <_ZN6SdFile5closeEv>
    free(_file); 
    2c1a:	89 8d       	ldd	r24, Y+25	; 0x19
    2c1c:	9a 8d       	ldd	r25, Y+26	; 0x1a
    2c1e:	14 d4       	rcall	.+2088   	; 0x3448 <free>
    2c20:	1a 8e       	std	Y+26, r1	; 0x1a
    _file = 0;
    2c22:	19 8e       	std	Y+25, r1	; 0x19
    2c24:	df 91       	pop	r29
    nfilecount--;
    Serial.print("Deleted ");
    Serial.println(nfilecount, DEC);
    */
  }
}
    2c26:	cf 91       	pop	r28
    2c28:	08 95       	ret

00002c2a <_ZN4File5flushEv>:

  return n > 0X7FFF ? 0X7FFF : n;
}

void File::flush() {
  if (_file)
    2c2a:	fc 01       	movw	r30, r24
    2c2c:	81 8d       	ldd	r24, Z+25	; 0x19
    2c2e:	92 8d       	ldd	r25, Z+26	; 0x1a
    2c30:	00 97       	sbiw	r24, 0x00	; 0
    2c32:	11 f0       	breq	.+4      	; 0x2c38 <_ZN4File5flushEv+0xe>
    _file->sync();
    2c34:	0c 94 5c 0a 	jmp	0x14b8	; 0x14b8 <_ZN6SdFile4syncEv>
    2c38:	08 95       	ret

00002c3a <_ZN4File4readEv>:
  int c = _file->read();
  if (c != -1) _file->seekCur(-1);
  return c;
}

int File::read() {
    2c3a:	df 93       	push	r29
    2c3c:	cf 93       	push	r28
    2c3e:	0f 92       	push	r0
    2c40:	cd b7       	in	r28, 0x3d	; 61
    2c42:	de b7       	in	r29, 0x3e	; 62
  if (_file) 
    2c44:	fc 01       	movw	r30, r24
    2c46:	81 8d       	ldd	r24, Z+25	; 0x19
    2c48:	92 8d       	ldd	r25, Z+26	; 0x1a
    2c4a:	00 97       	sbiw	r24, 0x00	; 0
    2c4c:	49 f0       	breq	.+18     	; 0x2c60 <_ZN4File4readEv+0x26>
   * \return For success read returns the next byte in the file as an int.
   * If an error occurs or end of file is reached -1 is returned.
   */
  int16_t read(void) {
    uint8_t b;
    return read(&b, 1) == 1 ? b : -1;
    2c4e:	be 01       	movw	r22, r28
    2c50:	6f 5f       	subi	r22, 0xFF	; 255
    2c52:	7f 4f       	sbci	r23, 0xFF	; 255
    2c54:	41 e0       	ldi	r20, 0x01	; 1
    2c56:	50 e0       	ldi	r21, 0x00	; 0
    2c58:	0e 94 76 0b 	call	0x16ec	; 0x16ec <_ZN6SdFile4readEPvj>
    2c5c:	01 97       	sbiw	r24, 0x01	; 1
    2c5e:	19 f0       	breq	.+6      	; 0x2c66 <_ZN4File4readEv+0x2c>
    2c60:	2f ef       	ldi	r18, 0xFF	; 255
    2c62:	3f ef       	ldi	r19, 0xFF	; 255
    2c64:	03 c0       	rjmp	.+6      	; 0x2c6c <_ZN4File4readEv+0x32>
    2c66:	89 81       	ldd	r24, Y+1	; 0x01
    2c68:	28 2f       	mov	r18, r24
    2c6a:	30 e0       	ldi	r19, 0x00	; 0
    return _file->read();
  return -1;
}
    2c6c:	c9 01       	movw	r24, r18
    2c6e:	0f 90       	pop	r0
    2c70:	cf 91       	pop	r28
    2c72:	df 91       	pop	r29
    2c74:	08 95       	ret

00002c76 <_ZN4File4peekEv>:
    return 0;
  }
  return t;
}

int File::peek() {
    2c76:	ef 92       	push	r14
    2c78:	ff 92       	push	r15
    2c7a:	0f 93       	push	r16
    2c7c:	1f 93       	push	r17
    2c7e:	df 93       	push	r29
    2c80:	cf 93       	push	r28
    2c82:	0f 92       	push	r0
    2c84:	cd b7       	in	r28, 0x3d	; 61
    2c86:	de b7       	in	r29, 0x3e	; 62
    2c88:	7c 01       	movw	r14, r24
  if (! _file) 
    2c8a:	dc 01       	movw	r26, r24
    2c8c:	59 96       	adiw	r26, 0x19	; 25
    2c8e:	8d 91       	ld	r24, X+
    2c90:	9c 91       	ld	r25, X
    2c92:	5a 97       	sbiw	r26, 0x1a	; 26
    2c94:	00 97       	sbiw	r24, 0x00	; 0
    2c96:	19 f4       	brne	.+6      	; 0x2c9e <_ZN4File4peekEv+0x28>
    2c98:	00 e0       	ldi	r16, 0x00	; 0
    2c9a:	10 e0       	ldi	r17, 0x00	; 0
    2c9c:	1f c0       	rjmp	.+62     	; 0x2cdc <_ZN4File4peekEv+0x66>
    2c9e:	be 01       	movw	r22, r28
    2ca0:	6f 5f       	subi	r22, 0xFF	; 255
    2ca2:	7f 4f       	sbci	r23, 0xFF	; 255
    2ca4:	41 e0       	ldi	r20, 0x01	; 1
    2ca6:	50 e0       	ldi	r21, 0x00	; 0
    2ca8:	0e 94 76 0b 	call	0x16ec	; 0x16ec <_ZN6SdFile4readEPvj>
    2cac:	01 97       	sbiw	r24, 0x01	; 1
    2cae:	19 f0       	breq	.+6      	; 0x2cb6 <_ZN4File4peekEv+0x40>
    2cb0:	0f ef       	ldi	r16, 0xFF	; 255
    2cb2:	1f ef       	ldi	r17, 0xFF	; 255
    2cb4:	13 c0       	rjmp	.+38     	; 0x2cdc <_ZN4File4peekEv+0x66>
    2cb6:	89 81       	ldd	r24, Y+1	; 0x01
    2cb8:	08 2f       	mov	r16, r24
    2cba:	10 e0       	ldi	r17, 0x00	; 0
    return 0;

  int c = _file->read();
  if (c != -1) _file->seekCur(-1);
    2cbc:	d7 01       	movw	r26, r14
    2cbe:	59 96       	adiw	r26, 0x19	; 25
    2cc0:	ed 91       	ld	r30, X+
    2cc2:	fc 91       	ld	r31, X
    2cc4:	5a 97       	sbiw	r26, 0x1a	; 26
  }
  uint8_t rmDir(void);
  uint8_t rmRfStar(void);
  /** Set the files position to current position + \a pos. See seekSet(). */
  uint8_t seekCur(uint32_t pos) {
    return seekSet(curPosition_ + pos);
    2cc6:	42 85       	ldd	r20, Z+10	; 0x0a
    2cc8:	53 85       	ldd	r21, Z+11	; 0x0b
    2cca:	64 85       	ldd	r22, Z+12	; 0x0c
    2ccc:	75 85       	ldd	r23, Z+13	; 0x0d
    2cce:	41 50       	subi	r20, 0x01	; 1
    2cd0:	50 40       	sbci	r21, 0x00	; 0
    2cd2:	60 40       	sbci	r22, 0x00	; 0
    2cd4:	70 40       	sbci	r23, 0x00	; 0
    2cd6:	cf 01       	movw	r24, r30
    2cd8:	0e 94 97 09 	call	0x132e	; 0x132e <_ZN6SdFile7seekSetEm>
  return c;
}
    2cdc:	c8 01       	movw	r24, r16
    2cde:	0f 90       	pop	r0
    2ce0:	cf 91       	pop	r28
    2ce2:	df 91       	pop	r29
    2ce4:	1f 91       	pop	r17
    2ce6:	0f 91       	pop	r16
    2ce8:	ff 90       	pop	r15
    2cea:	ef 90       	pop	r14
    2cec:	08 95       	ret

00002cee <_ZN4File5writeEPKhj>:

size_t File::write(uint8_t val) {
  return write(&val, 1);
}

size_t File::write(const uint8_t *buf, size_t size) {
    2cee:	cf 93       	push	r28
    2cf0:	df 93       	push	r29
    2cf2:	ec 01       	movw	r28, r24
  size_t t;
  if (!_file) {
    2cf4:	e9 8d       	ldd	r30, Y+25	; 0x19
    2cf6:	fa 8d       	ldd	r31, Y+26	; 0x1a
    2cf8:	30 97       	sbiw	r30, 0x00	; 0
    2cfa:	61 f0       	breq	.+24     	; 0x2d14 <_ZN4File5writeEPKhj+0x26>
    setWriteError();
    return 0;
    2cfc:	13 82       	std	Z+3, r1	; 0x03
    2cfe:	12 82       	std	Z+2, r1	; 0x02
  }
  _file->clearWriteError();
  t = _file->write(buf, size);
    2d00:	cf 01       	movw	r24, r30
    2d02:	0e 94 b3 0d 	call	0x1b66	; 0x1b66 <_ZN6SdFile5writeEPKvj>
    2d06:	9c 01       	movw	r18, r24
  if (_file->getWriteError()) {
    2d08:	e9 8d       	ldd	r30, Y+25	; 0x19
    2d0a:	fa 8d       	ldd	r31, Y+26	; 0x1a
    2d0c:	82 81       	ldd	r24, Z+2	; 0x02
    2d0e:	93 81       	ldd	r25, Z+3	; 0x03
    2d10:	89 2b       	or	r24, r25
    2d12:	31 f0       	breq	.+12     	; 0x2d20 <_ZN4File5writeEPKhj+0x32>
  private:
    int write_error;
    size_t printNumber(unsigned long, uint8_t);
    size_t printFloat(double, uint8_t);
  protected:
    void setWriteError(int err = 1) { write_error = err; }
    2d14:	81 e0       	ldi	r24, 0x01	; 1
    2d16:	90 e0       	ldi	r25, 0x00	; 0
    2d18:	9b 83       	std	Y+3, r25	; 0x03
    2d1a:	8a 83       	std	Y+2, r24	; 0x02
    2d1c:	20 e0       	ldi	r18, 0x00	; 0
    2d1e:	30 e0       	ldi	r19, 0x00	; 0
    setWriteError();
    return 0;
  }
  return t;
}
    2d20:	c9 01       	movw	r24, r18
    2d22:	df 91       	pop	r29
    2d24:	cf 91       	pop	r28
    2d26:	08 95       	ret

00002d28 <_ZN4FileC1E6SdFilePKc>:

/* for debugging file open/close leaks
   uint8_t nfilecount=0;
*/

File::File(SdFile f, const char *n) {
    2d28:	ef 92       	push	r14
    2d2a:	ff 92       	push	r15
    2d2c:	0f 93       	push	r16
    2d2e:	1f 93       	push	r17
    2d30:	cf 93       	push	r28
    2d32:	df 93       	push	r29
    2d34:	ec 01       	movw	r28, r24
    2d36:	f6 2e       	mov	r15, r22
    2d38:	e7 2e       	mov	r14, r23
    2d3a:	8a 01       	movw	r16, r20
  public:
    Print() : write_error(0) {}
    2d3c:	1b 82       	std	Y+3, r1	; 0x03
    2d3e:	1a 82       	std	Y+2, r1	; 0x02
    2d40:	88 ee       	ldi	r24, 0xE8	; 232
    2d42:	93 e0       	ldi	r25, 0x03	; 3
    2d44:	a0 e0       	ldi	r26, 0x00	; 0
    2d46:	b0 e0       	ldi	r27, 0x00	; 0
    2d48:	8c 83       	std	Y+4, r24	; 0x04
    2d4a:	9d 83       	std	Y+5, r25	; 0x05
    2d4c:	ae 83       	std	Y+6, r26	; 0x06
    2d4e:	bf 83       	std	Y+7, r27	; 0x07
    2d50:	8e e3       	ldi	r24, 0x3E	; 62
    2d52:	92 e0       	ldi	r25, 0x02	; 2
    2d54:	99 83       	std	Y+1, r25	; 0x01
    2d56:	88 83       	st	Y, r24
  // oh man you are kidding me, new() doesnt exist? Ok we do it by hand!
  _file = (SdFile *)malloc(sizeof(SdFile)); 
    2d58:	8d e1       	ldi	r24, 0x1D	; 29
    2d5a:	90 e0       	ldi	r25, 0x00	; 0
    2d5c:	d8 d2       	rcall	.+1456   	; 0x330e <malloc>
    2d5e:	9a 8f       	std	Y+26, r25	; 0x1a
    2d60:	89 8f       	std	Y+25, r24	; 0x19
    2d62:	00 97       	sbiw	r24, 0x00	; 0
  if (_file) {
    2d64:	91 f0       	breq	.+36     	; 0x2d8a <_ZN4FileC1E6SdFilePKc+0x62>
    2d66:	dc 01       	movw	r26, r24
    memcpy(_file, &f, sizeof(SdFile));
    2d68:	8f 2d       	mov	r24, r15
    2d6a:	9e 2d       	mov	r25, r14
    2d6c:	9c 01       	movw	r18, r24
    2d6e:	f9 01       	movw	r30, r18
    2d70:	8d e1       	ldi	r24, 0x1D	; 29
    2d72:	01 90       	ld	r0, Z+
    2d74:	0d 92       	st	X+, r0
    2d76:	81 50       	subi	r24, 0x01	; 1
    2d78:	e1 f7       	brne	.-8      	; 0x2d72 <_ZN4FileC1E6SdFilePKc+0x4a>
    2d7a:	ce 01       	movw	r24, r28
    
    strncpy(_name, n, 12);
    2d7c:	0c 96       	adiw	r24, 0x0c	; 12
    2d7e:	b8 01       	movw	r22, r16
    2d80:	4c e0       	ldi	r20, 0x0C	; 12
    2d82:	50 e0       	ldi	r21, 0x00	; 0
    2d84:	0e 94 b5 00 	call	0x16a	; 0x16a <strncpy>
    2d88:	18 8e       	std	Y+24, r1	; 0x18
    _name[12] = 0;
    2d8a:	df 91       	pop	r29
       Serial.print(n);
       Serial.print("\": ");
       Serial.println(nfilecount, DEC);
    */
  }
}
    2d8c:	cf 91       	pop	r28
    2d8e:	1f 91       	pop	r17
    2d90:	0f 91       	pop	r16
    2d92:	ff 90       	pop	r15
    2d94:	ef 90       	pop	r14
    2d96:	08 95       	ret

00002d98 <_GLOBAL__I__Z20getNextPathComponentPcPjS_>:
 * \brief Raw access to SD and SDHC flash memory cards.
 */
class Sd2Card {
 public:
  /** Construct an instance of Sd2Card. */
  Sd2Card(void) : errorCode_(0), inBlock_(0), partialBlockRead_(0), type_(0) {}
    2d98:	10 92 87 05 	sts	0x0587, r1
    2d9c:	10 92 88 05 	sts	0x0588, r1
    2da0:	10 92 8b 05 	sts	0x058B, r1
    2da4:	10 92 8d 05 	sts	0x058D, r1
 * \brief Access FAT16 and FAT32 volumes on SD and SDHC cards.
 */
class SdVolume {
 public:
  /** Create an instance of SdVolume */
  SdVolume(void) :allocSearchStart_(2), fatType_(0) {}
    2da8:	82 e0       	ldi	r24, 0x02	; 2
    2daa:	90 e0       	ldi	r25, 0x00	; 0
    2dac:	a0 e0       	ldi	r26, 0x00	; 0
    2dae:	b0 e0       	ldi	r27, 0x00	; 0
    2db0:	80 93 8e 05 	sts	0x058E, r24
    2db4:	90 93 8f 05 	sts	0x058F, r25
    2db8:	a0 93 90 05 	sts	0x0590, r26
    2dbc:	b0 93 91 05 	sts	0x0591, r27
    2dc0:	10 92 a5 05 	sts	0x05A5, r1
    2dc4:	10 92 af 05 	sts	0x05AF, r1
    2dc8:	10 92 ae 05 	sts	0x05AE, r1
 * \brief Access FAT16 and FAT32 files on SD and SDHC cards.
 */
class SdFile : public Print {
 public:
  /** Create an instance of SdFile. */
  SdFile(void) : type_(FAT_FILE_TYPE_CLOSED) {}
    2dcc:	86 e3       	ldi	r24, 0x36	; 54
    2dce:	92 e0       	ldi	r25, 0x02	; 2
    2dd0:	90 93 ad 05 	sts	0x05AD, r25
    2dd4:	80 93 ac 05 	sts	0x05AC, r24
    2dd8:	10 92 b1 05 	sts	0x05B1, r1
void File::rewindDirectory(void) {  
  if (isDirectory())
    _file->rewind();
}

SDClass SD;
    2ddc:	08 95       	ret

00002dde <_ZN7SDClass12getParentDirEPKcPi>:
}



// this little helper is used to traverse paths
SdFile SDClass::getParentDir(const char *filepath, int *index) {
    2dde:	2f 92       	push	r2
    2de0:	3f 92       	push	r3
    2de2:	4f 92       	push	r4
    2de4:	5f 92       	push	r5
    2de6:	6f 92       	push	r6
    2de8:	7f 92       	push	r7
    2dea:	8f 92       	push	r8
    2dec:	9f 92       	push	r9
    2dee:	af 92       	push	r10
    2df0:	bf 92       	push	r11
    2df2:	cf 92       	push	r12
    2df4:	df 92       	push	r13
    2df6:	ef 92       	push	r14
    2df8:	ff 92       	push	r15
    2dfa:	0f 93       	push	r16
    2dfc:	1f 93       	push	r17
    2dfe:	df 93       	push	r29
    2e00:	cf 93       	push	r28
    2e02:	cd b7       	in	r28, 0x3d	; 61
    2e04:	de b7       	in	r29, 0x3e	; 62
    2e06:	c7 54       	subi	r28, 0x47	; 71
    2e08:	d0 40       	sbci	r29, 0x00	; 0
    2e0a:	0f b6       	in	r0, 0x3f	; 63
    2e0c:	f8 94       	cli
    2e0e:	de bf       	out	0x3e, r29	; 62
    2e10:	0f be       	out	0x3f, r0	; 63
    2e12:	cd bf       	out	0x3d, r28	; 61
    2e14:	58 2e       	mov	r5, r24
    2e16:	49 2e       	mov	r4, r25
    2e18:	fb 01       	movw	r30, r22
    2e1a:	3a 01       	movw	r6, r20
    2e1c:	19 01       	movw	r2, r18
#define HEX 16
#define OCT 8
#define BIN 2

class Print
{
    2e1e:	84 a5       	ldd	r24, Z+44	; 0x2c
    2e20:	95 a5       	ldd	r25, Z+45	; 0x2d
    2e22:	99 8b       	std	Y+17, r25	; 0x11
    2e24:	88 8b       	std	Y+16, r24	; 0x10
//------------------------------------------------------------------------------
/**
 * \class SdFile
 * \brief Access FAT16 and FAT32 files on SD and SDHC cards.
 */
class SdFile : public Print {
    2e26:	26 e3       	ldi	r18, 0x36	; 54
    2e28:	32 e0       	ldi	r19, 0x02	; 2
    2e2a:	3f 87       	std	Y+15, r19	; 0x0f
    2e2c:	2e 87       	std	Y+14, r18	; 0x0e
    2e2e:	86 a5       	ldd	r24, Z+46	; 0x2e
    2e30:	8a 8b       	std	Y+18, r24	; 0x12
    2e32:	87 a5       	ldd	r24, Z+47	; 0x2f
    2e34:	8b 8b       	std	Y+19, r24	; 0x13
    2e36:	80 a9       	ldd	r24, Z+48	; 0x30
    2e38:	91 a9       	ldd	r25, Z+49	; 0x31
    2e3a:	a2 a9       	ldd	r26, Z+50	; 0x32
    2e3c:	b3 a9       	ldd	r27, Z+51	; 0x33
    2e3e:	8c 8b       	std	Y+20, r24	; 0x14
    2e40:	9d 8b       	std	Y+21, r25	; 0x15
    2e42:	ae 8b       	std	Y+22, r26	; 0x16
    2e44:	bf 8b       	std	Y+23, r27	; 0x17
    2e46:	84 a9       	ldd	r24, Z+52	; 0x34
    2e48:	95 a9       	ldd	r25, Z+53	; 0x35
    2e4a:	a6 a9       	ldd	r26, Z+54	; 0x36
    2e4c:	b7 a9       	ldd	r27, Z+55	; 0x37
    2e4e:	88 8f       	std	Y+24, r24	; 0x18
    2e50:	99 8f       	std	Y+25, r25	; 0x19
    2e52:	aa 8f       	std	Y+26, r26	; 0x1a
    2e54:	bb 8f       	std	Y+27, r27	; 0x1b
    2e56:	80 ad       	ldd	r24, Z+56	; 0x38
    2e58:	91 ad       	ldd	r25, Z+57	; 0x39
    2e5a:	a2 ad       	ldd	r26, Z+58	; 0x3a
    2e5c:	b3 ad       	ldd	r27, Z+59	; 0x3b
    2e5e:	8c 8f       	std	Y+28, r24	; 0x1c
    2e60:	9d 8f       	std	Y+29, r25	; 0x1d
    2e62:	ae 8f       	std	Y+30, r26	; 0x1e
    2e64:	bf 8f       	std	Y+31, r27	; 0x1f
    2e66:	84 ad       	ldd	r24, Z+60	; 0x3c
    2e68:	88 a3       	std	Y+32, r24	; 0x20
    2e6a:	fd 96       	adiw	r30, 0x3d	; 61
    2e6c:	81 91       	ld	r24, Z+
    2e6e:	91 91       	ld	r25, Z+
    2e70:	a1 91       	ld	r26, Z+
    2e72:	b1 91       	ld	r27, Z+
    2e74:	89 a3       	std	Y+33, r24	; 0x21
    2e76:	9a a3       	std	Y+34, r25	; 0x22
    2e78:	ab a3       	std	Y+35, r26	; 0x23
    2e7a:	bc a3       	std	Y+36, r27	; 0x24
    2e7c:	81 91       	ld	r24, Z+
    2e7e:	91 91       	ld	r25, Z+
    2e80:	a1 91       	ld	r26, Z+
    2e82:	b1 91       	ld	r27, Z+
    2e84:	8d a3       	std	Y+37, r24	; 0x25
    2e86:	9e a3       	std	Y+38, r25	; 0x26
    2e88:	af a3       	std	Y+39, r26	; 0x27
    2e8a:	b8 a7       	std	Y+40, r27	; 0x28
    2e8c:	80 81       	ld	r24, Z
    2e8e:	91 81       	ldd	r25, Z+1	; 0x01
    2e90:	9a a7       	std	Y+42, r25	; 0x2a
    2e92:	89 a7       	std	Y+41, r24	; 0x29
    size_t printNumber(unsigned long, uint8_t);
    size_t printFloat(double, uint8_t);
  protected:
    void setWriteError(int err = 1) { write_error = err; }
  public:
    Print() : write_error(0) {}
    2e94:	1e a6       	std	Y+46, r1	; 0x2e
    2e96:	1d a6       	std	Y+45, r1	; 0x2d
 public:
  /** Create an instance of SdFile. */
  SdFile(void) : type_(FAT_FILE_TYPE_CLOSED) {}
    2e98:	3c a7       	std	Y+44, r19	; 0x2c
    2e9a:	2b a7       	std	Y+43, r18	; 0x2b
    2e9c:	18 aa       	std	Y+48, r1	; 0x30
    2e9e:	7a 01       	movw	r14, r20
    2ea0:	8e 01       	movw	r16, r28
    2ea2:	02 5f       	subi	r16, 0xF2	; 242
    2ea4:	1f 4f       	sbci	r17, 0xFF	; 255
    2ea6:	3b e2       	ldi	r19, 0x2B	; 43
    2ea8:	a3 2e       	mov	r10, r19
    2eaa:	b1 2c       	mov	r11, r1
    2eac:	ac 0e       	add	r10, r28
    2eae:	bd 1e       	adc	r11, r29
    // extract just the name of the next subdirectory
    uint8_t idx = strchr(filepath, '/') - filepath;
    if (idx > 12)
      idx = 12;    // dont let them specify long names
    char subdirname[13];
    strncpy(subdirname, filepath, idx);
    2eb0:	4e 01       	movw	r8, r28
    2eb2:	08 94       	sec
    2eb4:	81 1c       	adc	r8, r1
    2eb6:	91 1c       	adc	r9, r1
    2eb8:	34 c0       	rjmp	.+104    	; 0x2f22 <_ZN7SDClass12getParentDirEPKcPi+0x144>
  const char *origpath = filepath;

  while (strchr(filepath, '/')) {

    // get rid of leading /'s
    if (filepath[0] == '/') {
    2eba:	d7 01       	movw	r26, r14
    2ebc:	8c 91       	ld	r24, X
    2ebe:	8f 32       	cpi	r24, 0x2F	; 47
    2ec0:	21 f4       	brne	.+8      	; 0x2eca <_ZN7SDClass12getParentDirEPKcPi+0xec>
      filepath++;
    2ec2:	08 94       	sec
    2ec4:	e1 1c       	adc	r14, r1
    2ec6:	f1 1c       	adc	r15, r1
    2ec8:	2c c0       	rjmp	.+88     	; 0x2f22 <_ZN7SDClass12getParentDirEPKcPi+0x144>
      // it was in the root directory, so leave now
      break;
    }

    // extract just the name of the next subdirectory
    uint8_t idx = strchr(filepath, '/') - filepath;
    2eca:	42 2f       	mov	r20, r18
    2ecc:	4e 19       	sub	r20, r14
    2ece:	4d 30       	cpi	r20, 0x0D	; 13
    2ed0:	08 f0       	brcs	.+2      	; 0x2ed4 <_ZN7SDClass12getParentDirEPKcPi+0xf6>
    2ed2:	4c e0       	ldi	r20, 0x0C	; 12
    if (idx > 12)
      idx = 12;    // dont let them specify long names
    char subdirname[13];
    strncpy(subdirname, filepath, idx);
    2ed4:	c4 2e       	mov	r12, r20
    2ed6:	dd 24       	eor	r13, r13
    2ed8:	c4 01       	movw	r24, r8
    2eda:	b7 01       	movw	r22, r14
    2edc:	a6 01       	movw	r20, r12
    2ede:	0e 94 b5 00 	call	0x16a	; 0x16a <strncpy>
    subdirname[idx] = 0;
    2ee2:	f4 01       	movw	r30, r8
    2ee4:	ec 0d       	add	r30, r12
    2ee6:	fd 1d       	adc	r31, r13
    2ee8:	10 82       	st	Z, r1

    // close the subdir (we reuse them) if open
    subdir->close();
    2eea:	c5 01       	movw	r24, r10
    2eec:	0e 94 a4 0a 	call	0x1548	; 0x1548 <_ZN6SdFile5closeEv>
    if (! subdir->open(parent, subdirname, O_READ)) {
    2ef0:	c5 01       	movw	r24, r10
    2ef2:	b8 01       	movw	r22, r16
    2ef4:	a4 01       	movw	r20, r8
    2ef6:	21 e0       	ldi	r18, 0x01	; 1
    2ef8:	59 d8       	rcall	.-3918   	; 0x1fac <_ZN6SdFile4openEPS_PKch>
    2efa:	88 23       	and	r24, r24
    2efc:	51 f4       	brne	.+20     	; 0x2f12 <_ZN7SDClass12getParentDirEPKcPi+0x134>
    2efe:	e5 2d       	mov	r30, r5
      // failed to open one of the subdirectories
      return SdFile();
    2f00:	f4 2d       	mov	r31, r4
    2f02:	13 82       	std	Z+3, r1	; 0x03
    2f04:	12 82       	std	Z+2, r1	; 0x02
    2f06:	86 e3       	ldi	r24, 0x36	; 54
    2f08:	92 e0       	ldi	r25, 0x02	; 2
    2f0a:	91 83       	std	Z+1, r25	; 0x01
    2f0c:	80 83       	st	Z, r24
    2f0e:	15 82       	std	Z+5, r1	; 0x05
    2f10:	66 c0       	rjmp	.+204    	; 0x2fde <_ZN7SDClass12getParentDirEPKcPi+0x200>
    2f12:	ec 0c       	add	r14, r12
    }
    // move forward to the next subdirectory
    filepath += idx;
    2f14:	fd 1c       	adc	r15, r13
    2f16:	c8 01       	movw	r24, r16

    // we reuse the objects, close it.
    parent->close();
    2f18:	0e 94 a4 0a 	call	0x1548	; 0x1548 <_ZN6SdFile5closeEv>
    2f1c:	c5 01       	movw	r24, r10
    2f1e:	58 01       	movw	r10, r16
    2f20:	8c 01       	movw	r16, r24
    2f22:	c7 01       	movw	r24, r14
  SdFile *parent = &d1;
  SdFile *subdir = &d2;
  
  const char *origpath = filepath;

  while (strchr(filepath, '/')) {
    2f24:	6f e2       	ldi	r22, 0x2F	; 47
    2f26:	70 e0       	ldi	r23, 0x00	; 0
    2f28:	0e 94 a3 00 	call	0x146	; 0x146 <strchr>
    2f2c:	9c 01       	movw	r18, r24
    2f2e:	00 97       	sbiw	r24, 0x00	; 0
    2f30:	21 f6       	brne	.-120    	; 0x2eba <_ZN7SDClass12getParentDirEPKcPi+0xdc>
    2f32:	e6 18       	sub	r14, r6
    SdFile *t = parent;
    parent = subdir;
    subdir = t;
  }

  *index = (int)(filepath - origpath);
    2f34:	f7 08       	sbc	r15, r7
    2f36:	f1 01       	movw	r30, r2
    2f38:	f1 82       	std	Z+1, r15	; 0x01
    2f3a:	e0 82       	st	Z, r14
    2f3c:	e5 2d       	mov	r30, r5
  // parent is now the parent diretory of the file!
  return *parent;
    2f3e:	f4 2d       	mov	r31, r4
    2f40:	d8 01       	movw	r26, r16
#define HEX 16
#define OCT 8
#define BIN 2

class Print
{
    2f42:	12 96       	adiw	r26, 0x02	; 2
    2f44:	8d 91       	ld	r24, X+
    2f46:	9c 91       	ld	r25, X
    2f48:	13 97       	sbiw	r26, 0x03	; 3
    2f4a:	93 83       	std	Z+3, r25	; 0x03
    2f4c:	82 83       	std	Z+2, r24	; 0x02
    2f4e:	86 e3       	ldi	r24, 0x36	; 54
//------------------------------------------------------------------------------
/**
 * \class SdFile
 * \brief Access FAT16 and FAT32 files on SD and SDHC cards.
 */
class SdFile : public Print {
    2f50:	92 e0       	ldi	r25, 0x02	; 2
    2f52:	91 83       	std	Z+1, r25	; 0x01
    2f54:	80 83       	st	Z, r24
    2f56:	14 96       	adiw	r26, 0x04	; 4
    2f58:	8c 91       	ld	r24, X
    2f5a:	14 97       	sbiw	r26, 0x04	; 4
    2f5c:	84 83       	std	Z+4, r24	; 0x04
    2f5e:	15 96       	adiw	r26, 0x05	; 5
    2f60:	8c 91       	ld	r24, X
    2f62:	15 97       	sbiw	r26, 0x05	; 5
    2f64:	85 83       	std	Z+5, r24	; 0x05
    2f66:	16 96       	adiw	r26, 0x06	; 6
    2f68:	2d 91       	ld	r18, X+
    2f6a:	3d 91       	ld	r19, X+
    2f6c:	4d 91       	ld	r20, X+
    2f6e:	5c 91       	ld	r21, X
    2f70:	19 97       	sbiw	r26, 0x09	; 9
    2f72:	26 83       	std	Z+6, r18	; 0x06
    2f74:	37 83       	std	Z+7, r19	; 0x07
    2f76:	40 87       	std	Z+8, r20	; 0x08
    2f78:	51 87       	std	Z+9, r21	; 0x09
    2f7a:	1a 96       	adiw	r26, 0x0a	; 10
    2f7c:	2d 91       	ld	r18, X+
    2f7e:	3d 91       	ld	r19, X+
    2f80:	4d 91       	ld	r20, X+
    2f82:	5c 91       	ld	r21, X
    2f84:	1d 97       	sbiw	r26, 0x0d	; 13
    2f86:	22 87       	std	Z+10, r18	; 0x0a
    2f88:	33 87       	std	Z+11, r19	; 0x0b
    2f8a:	44 87       	std	Z+12, r20	; 0x0c
    2f8c:	55 87       	std	Z+13, r21	; 0x0d
    2f8e:	1e 96       	adiw	r26, 0x0e	; 14
    2f90:	2d 91       	ld	r18, X+
    2f92:	3d 91       	ld	r19, X+
    2f94:	4d 91       	ld	r20, X+
    2f96:	5c 91       	ld	r21, X
    2f98:	51 97       	sbiw	r26, 0x11	; 17
    2f9a:	26 87       	std	Z+14, r18	; 0x0e
    2f9c:	37 87       	std	Z+15, r19	; 0x0f
    2f9e:	40 8b       	std	Z+16, r20	; 0x10
    2fa0:	51 8b       	std	Z+17, r21	; 0x11
    2fa2:	52 96       	adiw	r26, 0x12	; 18
    2fa4:	8c 91       	ld	r24, X
    2fa6:	52 97       	sbiw	r26, 0x12	; 18
    2fa8:	82 8b       	std	Z+18, r24	; 0x12
    2faa:	53 96       	adiw	r26, 0x13	; 19
    2fac:	2d 91       	ld	r18, X+
    2fae:	3d 91       	ld	r19, X+
    2fb0:	4d 91       	ld	r20, X+
    2fb2:	5c 91       	ld	r21, X
    2fb4:	56 97       	sbiw	r26, 0x16	; 22
    2fb6:	23 8b       	std	Z+19, r18	; 0x13
    2fb8:	34 8b       	std	Z+20, r19	; 0x14
    2fba:	45 8b       	std	Z+21, r20	; 0x15
    2fbc:	56 8b       	std	Z+22, r21	; 0x16
    2fbe:	57 96       	adiw	r26, 0x17	; 23
    2fc0:	2d 91       	ld	r18, X+
    2fc2:	3d 91       	ld	r19, X+
    2fc4:	4d 91       	ld	r20, X+
    2fc6:	5c 91       	ld	r21, X
    2fc8:	5a 97       	sbiw	r26, 0x1a	; 26
    2fca:	27 8b       	std	Z+23, r18	; 0x17
    2fcc:	30 8f       	std	Z+24, r19	; 0x18
    2fce:	41 8f       	std	Z+25, r20	; 0x19
    2fd0:	52 8f       	std	Z+26, r21	; 0x1a
    2fd2:	5b 96       	adiw	r26, 0x1b	; 27
    2fd4:	8d 91       	ld	r24, X+
    2fd6:	9c 91       	ld	r25, X
    2fd8:	5c 97       	sbiw	r26, 0x1c	; 28
    2fda:	94 8f       	std	Z+28, r25	; 0x1c
    2fdc:	83 8f       	std	Z+27, r24	; 0x1b
    2fde:	85 2d       	mov	r24, r5
}
    2fe0:	94 2d       	mov	r25, r4
    2fe2:	c9 5b       	subi	r28, 0xB9	; 185
    2fe4:	df 4f       	sbci	r29, 0xFF	; 255
    2fe6:	0f b6       	in	r0, 0x3f	; 63
    2fe8:	f8 94       	cli
    2fea:	de bf       	out	0x3e, r29	; 62
    2fec:	0f be       	out	0x3f, r0	; 63
    2fee:	cd bf       	out	0x3d, r28	; 61
    2ff0:	cf 91       	pop	r28
    2ff2:	df 91       	pop	r29
    2ff4:	1f 91       	pop	r17
    2ff6:	0f 91       	pop	r16
    2ff8:	ff 90       	pop	r15
    2ffa:	ef 90       	pop	r14
    2ffc:	df 90       	pop	r13
    2ffe:	cf 90       	pop	r12
    3000:	bf 90       	pop	r11
    3002:	af 90       	pop	r10
    3004:	9f 90       	pop	r9
    3006:	8f 90       	pop	r8
    3008:	7f 90       	pop	r7
    300a:	6f 90       	pop	r6
    300c:	5f 90       	pop	r5
    300e:	4f 90       	pop	r4
    3010:	3f 90       	pop	r3
    3012:	2f 90       	pop	r2
    3014:	08 95       	ret

00003016 <_ZN7SDClass4openEPKch>:


File SDClass::open(const char *filepath, uint8_t mode) {
    3016:	9f 92       	push	r9
    3018:	af 92       	push	r10
    301a:	bf 92       	push	r11
    301c:	cf 92       	push	r12
    301e:	df 92       	push	r13
    3020:	ef 92       	push	r14
    3022:	ff 92       	push	r15
    3024:	0f 93       	push	r16
    3026:	1f 93       	push	r17
    3028:	df 93       	push	r29
    302a:	cf 93       	push	r28
    302c:	cd b7       	in	r28, 0x3d	; 61
    302e:	de b7       	in	r29, 0x3e	; 62
    3030:	c6 57       	subi	r28, 0x76	; 118
    3032:	d0 40       	sbci	r29, 0x00	; 0
    3034:	0f b6       	in	r0, 0x3f	; 63
    3036:	f8 94       	cli
    3038:	de bf       	out	0x3e, r29	; 62
    303a:	0f be       	out	0x3f, r0	; 63
    303c:	cd bf       	out	0x3d, r28	; 61
    303e:	c8 2e       	mov	r12, r24
    3040:	99 2e       	mov	r9, r25
    3042:	8a 01       	movw	r16, r20
    3044:	d2 2e       	mov	r13, r18
   */

  int pathidx;

  // do the interative search
  SdFile parentdir = getParentDir(filepath, &pathidx);
    3046:	43 e0       	ldi	r20, 0x03	; 3
    3048:	a4 2e       	mov	r10, r20
    304a:	b1 2c       	mov	r11, r1
    304c:	ac 0e       	add	r10, r28
    304e:	bd 1e       	adc	r11, r29
    3050:	c5 01       	movw	r24, r10
    3052:	a8 01       	movw	r20, r16
    3054:	9e 01       	movw	r18, r28
    3056:	2f 5f       	subi	r18, 0xFF	; 255
    3058:	3f 4f       	sbci	r19, 0xFF	; 255
    305a:	c1 de       	rcall	.-638    	; 0x2dde <_ZN7SDClass12getParentDirEPKcPi>
    305c:	e9 80       	ldd	r14, Y+1	; 0x01
  // no more subdirs!

  filepath += pathidx;
    305e:	fa 80       	ldd	r15, Y+2	; 0x02
    3060:	e0 0e       	add	r14, r16
    3062:	f1 1e       	adc	r15, r17
    3064:	f7 01       	movw	r30, r14

  if (! filepath[0]) {
    3066:	80 81       	ld	r24, Z
    3068:	46 e3       	ldi	r20, 0x36	; 54
    306a:	52 e0       	ldi	r21, 0x02	; 2
    306c:	28 85       	ldd	r18, Y+8	; 0x08
    306e:	88 23       	and	r24, r24
    3070:	09 f0       	breq	.+2      	; 0x3074 <_ZN7SDClass4openEPKch+0x5e>
    3072:	3f c0       	rjmp	.+126    	; 0x30f2 <_ZN7SDClass4openEPKch+0xdc>
    3074:	8d 81       	ldd	r24, Y+5	; 0x05
    3076:	9e 81       	ldd	r25, Y+6	; 0x06
    3078:	9b a3       	std	Y+35, r25	; 0x23
    307a:	8a a3       	std	Y+34, r24	; 0x22
    307c:	59 a3       	std	Y+33, r21	; 0x21
    307e:	48 a3       	std	Y+32, r20	; 0x20
    3080:	8f 81       	ldd	r24, Y+7	; 0x07
    3082:	8c a3       	std	Y+36, r24	; 0x24
    3084:	2d a3       	std	Y+37, r18	; 0x25
    3086:	89 85       	ldd	r24, Y+9	; 0x09
    3088:	9a 85       	ldd	r25, Y+10	; 0x0a
    308a:	ab 85       	ldd	r26, Y+11	; 0x0b
    308c:	bc 85       	ldd	r27, Y+12	; 0x0c
    308e:	8e a3       	std	Y+38, r24	; 0x26
    3090:	9f a3       	std	Y+39, r25	; 0x27
    3092:	a8 a7       	std	Y+40, r26	; 0x28
    3094:	b9 a7       	std	Y+41, r27	; 0x29
    3096:	8d 85       	ldd	r24, Y+13	; 0x0d
    3098:	9e 85       	ldd	r25, Y+14	; 0x0e
    309a:	af 85       	ldd	r26, Y+15	; 0x0f
    309c:	b8 89       	ldd	r27, Y+16	; 0x10
    309e:	8a a7       	std	Y+42, r24	; 0x2a
    30a0:	9b a7       	std	Y+43, r25	; 0x2b
    30a2:	ac a7       	std	Y+44, r26	; 0x2c
    30a4:	bd a7       	std	Y+45, r27	; 0x2d
    30a6:	89 89       	ldd	r24, Y+17	; 0x11
    30a8:	9a 89       	ldd	r25, Y+18	; 0x12
    30aa:	ab 89       	ldd	r26, Y+19	; 0x13
    30ac:	bc 89       	ldd	r27, Y+20	; 0x14
    30ae:	8e a7       	std	Y+46, r24	; 0x2e
    30b0:	9f a7       	std	Y+47, r25	; 0x2f
    30b2:	a8 ab       	std	Y+48, r26	; 0x30
    30b4:	b9 ab       	std	Y+49, r27	; 0x31
    30b6:	8d 89       	ldd	r24, Y+21	; 0x15
    30b8:	8a ab       	std	Y+50, r24	; 0x32
    30ba:	8e 89       	ldd	r24, Y+22	; 0x16
    30bc:	9f 89       	ldd	r25, Y+23	; 0x17
    30be:	a8 8d       	ldd	r26, Y+24	; 0x18
    30c0:	b9 8d       	ldd	r27, Y+25	; 0x19
    30c2:	8b ab       	std	Y+51, r24	; 0x33
    30c4:	9c ab       	std	Y+52, r25	; 0x34
    30c6:	ad ab       	std	Y+53, r26	; 0x35
    30c8:	be ab       	std	Y+54, r27	; 0x36
    30ca:	8a 8d       	ldd	r24, Y+26	; 0x1a
    30cc:	9b 8d       	ldd	r25, Y+27	; 0x1b
    30ce:	ac 8d       	ldd	r26, Y+28	; 0x1c
    30d0:	bd 8d       	ldd	r27, Y+29	; 0x1d
    30d2:	8f ab       	std	Y+55, r24	; 0x37
    30d4:	98 af       	std	Y+56, r25	; 0x38
    30d6:	a9 af       	std	Y+57, r26	; 0x39
    30d8:	ba af       	std	Y+58, r27	; 0x3a
    30da:	8e 8d       	ldd	r24, Y+30	; 0x1e
    30dc:	9f 8d       	ldd	r25, Y+31	; 0x1f
    30de:	9c af       	std	Y+60, r25	; 0x3c
    30e0:	8b af       	std	Y+59, r24	; 0x3b
    30e2:	8c 2d       	mov	r24, r12
    // it was the directory itself!
    return File(parentdir, "/");
    30e4:	99 2d       	mov	r25, r9
    30e6:	be 01       	movw	r22, r28
    30e8:	60 5e       	subi	r22, 0xE0	; 224
    30ea:	7f 4f       	sbci	r23, 0xFF	; 255
    30ec:	46 e2       	ldi	r20, 0x26	; 38
    30ee:	52 e0       	ldi	r21, 0x02	; 2
    30f0:	9e c0       	rjmp	.+316    	; 0x322e <_ZN7SDClass4openEPKch+0x218>
    30f2:	fe 01       	movw	r30, r28
    size_t printNumber(unsigned long, uint8_t);
    size_t printFloat(double, uint8_t);
  protected:
    void setWriteError(int err = 1) { write_error = err; }
  public:
    Print() : write_error(0) {}
    30f4:	ff 96       	adiw	r30, 0x3f	; 63
    30f6:	11 82       	std	Z+1, r1	; 0x01
    30f8:	10 82       	st	Z, r1
    30fa:	5e af       	std	Y+62, r21	; 0x3e
 public:
  /** Create an instance of SdFile. */
  SdFile(void) : type_(FAT_FILE_TYPE_CLOSED) {}
    30fc:	4d af       	std	Y+61, r20	; 0x3d
    30fe:	fe 01       	movw	r30, r28
    3100:	ee 5b       	subi	r30, 0xBE	; 190
    3102:	ff 4f       	sbci	r31, 0xFF	; 255
    3104:	10 82       	st	Z, r1
    3106:	22 23       	and	r18, r18

  // Open the file itself
  SdFile file;

  // failed to open a subdir!
  if (!parentdir.isOpen())
    3108:	a9 f0       	breq	.+42     	; 0x3134 <_ZN7SDClass4openEPKch+0x11e>
    310a:	22 50       	subi	r18, 0x02	; 2
    return File();

  // there is a special case for the Root directory since its a static dir
  if (parentdir.isRoot()) {
    310c:	ce 01       	movw	r24, r28
    310e:	cd 96       	adiw	r24, 0x3d	; 61
    3110:	22 30       	cpi	r18, 0x02	; 2
    3112:	48 f4       	brcc	.+18     	; 0x3126 <_ZN7SDClass4openEPKch+0x110>
    3114:	6c ea       	ldi	r22, 0xAC	; 172
  /** \deprecated Use:
   * uint8_t SdFile::open(SdFile* dirFile, const char* fileName, uint8_t oflag);
   */
  uint8_t open(SdFile& dirFile, // NOLINT
    const char* fileName, uint8_t oflag) {
    return open(&dirFile, fileName, oflag);
    3116:	75 e0       	ldi	r23, 0x05	; 5
    3118:	a7 01       	movw	r20, r14
    311a:	2d 2d       	mov	r18, r13
    311c:	0e 94 d6 0f 	call	0x1fac	; 0x1fac <_ZN6SdFile4openEPS_PKch>
    3120:	88 23       	and	r24, r24
    if ( ! file.open(SD.root, filepath, mode)) {
    3122:	79 f4       	brne	.+30     	; 0x3142 <_ZN7SDClass4openEPKch+0x12c>
    3124:	07 c0       	rjmp	.+14     	; 0x3134 <_ZN7SDClass4openEPKch+0x11e>
    3126:	b5 01       	movw	r22, r10
    3128:	a7 01       	movw	r20, r14
    312a:	2d 2d       	mov	r18, r13
    312c:	0e 94 d6 0f 	call	0x1fac	; 0x1fac <_ZN6SdFile4openEPS_PKch>
    3130:	88 23       	and	r24, r24
      // failed to open the file :(
      return File();
    }
    // dont close the root!
  } else {
    if ( ! file.open(parentdir, filepath, mode)) {
    3132:	21 f4       	brne	.+8      	; 0x313c <_ZN7SDClass4openEPKch+0x126>
    3134:	8c 2d       	mov	r24, r12
      return File();
    3136:	99 2d       	mov	r25, r9
    3138:	05 dd       	rcall	.-1526   	; 0x2b44 <_ZN4FileC1Ev>
    313a:	7a c0       	rjmp	.+244    	; 0x3230 <_ZN7SDClass4openEPKch+0x21a>
    313c:	c5 01       	movw	r24, r10
    313e:	0e 94 a4 0a 	call	0x1548	; 0x1548 <_ZN6SdFile5closeEv>
    }
    // close the parent
    parentdir.close();
    3142:	f6 e0       	ldi	r31, 0x06	; 6
    3144:	df 22       	and	r13, r31
  }

  if (mode & (O_APPEND | O_WRITE)) 
    3146:	59 f0       	breq	.+22     	; 0x315e <_ZN7SDClass4openEPKch+0x148>
    3148:	fe 01       	movw	r30, r28
    314a:	e0 5b       	subi	r30, 0xB0	; 176
    file.seekSet(file.fileSize());
    314c:	ff 4f       	sbci	r31, 0xFF	; 255
    314e:	40 81       	ld	r20, Z
    3150:	51 81       	ldd	r21, Z+1	; 0x01
    3152:	62 81       	ldd	r22, Z+2	; 0x02
    3154:	73 81       	ldd	r23, Z+3	; 0x03
    3156:	ce 01       	movw	r24, r28
    3158:	cd 96       	adiw	r24, 0x3d	; 61
    315a:	0e 94 97 09 	call	0x132e	; 0x132e <_ZN6SdFile7seekSetEm>
    315e:	9e 01       	movw	r18, r28
    3160:	26 5a       	subi	r18, 0xA6	; 166
#define HEX 16
#define OCT 8
#define BIN 2

class Print
{
    3162:	3f 4f       	sbci	r19, 0xFF	; 255
    3164:	fe 01       	movw	r30, r28
    3166:	ff 96       	adiw	r30, 0x3f	; 63
    3168:	80 81       	ld	r24, Z
    316a:	91 81       	ldd	r25, Z+1	; 0x01
    316c:	f9 01       	movw	r30, r18
    316e:	93 83       	std	Z+3, r25	; 0x03
    3170:	82 83       	std	Z+2, r24	; 0x02
    3172:	86 e3       	ldi	r24, 0x36	; 54
    3174:	92 e0       	ldi	r25, 0x02	; 2
//------------------------------------------------------------------------------
/**
 * \class SdFile
 * \brief Access FAT16 and FAT32 files on SD and SDHC cards.
 */
class SdFile : public Print {
    3176:	91 83       	std	Z+1, r25	; 0x01
    3178:	80 83       	st	Z, r24
    317a:	fe 01       	movw	r30, r28
    317c:	ef 5b       	subi	r30, 0xBF	; 191
    317e:	ff 4f       	sbci	r31, 0xFF	; 255
    3180:	80 81       	ld	r24, Z
    3182:	f9 01       	movw	r30, r18
    3184:	84 83       	std	Z+4, r24	; 0x04
    3186:	fe 01       	movw	r30, r28
    3188:	ee 5b       	subi	r30, 0xBE	; 190
    318a:	ff 4f       	sbci	r31, 0xFF	; 255
    318c:	80 81       	ld	r24, Z
    318e:	f9 01       	movw	r30, r18
    3190:	85 83       	std	Z+5, r24	; 0x05
    3192:	fe 01       	movw	r30, r28
    3194:	ed 5b       	subi	r30, 0xBD	; 189
    3196:	ff 4f       	sbci	r31, 0xFF	; 255
    3198:	80 81       	ld	r24, Z
    319a:	91 81       	ldd	r25, Z+1	; 0x01
    319c:	a2 81       	ldd	r26, Z+2	; 0x02
    319e:	b3 81       	ldd	r27, Z+3	; 0x03
    31a0:	f9 01       	movw	r30, r18
    31a2:	86 83       	std	Z+6, r24	; 0x06
    31a4:	97 83       	std	Z+7, r25	; 0x07
    31a6:	a0 87       	std	Z+8, r26	; 0x08
    31a8:	b1 87       	std	Z+9, r27	; 0x09
    31aa:	fe 01       	movw	r30, r28
    31ac:	e9 5b       	subi	r30, 0xB9	; 185
    31ae:	ff 4f       	sbci	r31, 0xFF	; 255
    31b0:	80 81       	ld	r24, Z
    31b2:	91 81       	ldd	r25, Z+1	; 0x01
    31b4:	a2 81       	ldd	r26, Z+2	; 0x02
    31b6:	b3 81       	ldd	r27, Z+3	; 0x03
    31b8:	f9 01       	movw	r30, r18
    31ba:	82 87       	std	Z+10, r24	; 0x0a
    31bc:	93 87       	std	Z+11, r25	; 0x0b
    31be:	a4 87       	std	Z+12, r26	; 0x0c
    31c0:	b5 87       	std	Z+13, r27	; 0x0d
    31c2:	fe 01       	movw	r30, r28
    31c4:	e5 5b       	subi	r30, 0xB5	; 181
    31c6:	ff 4f       	sbci	r31, 0xFF	; 255
    31c8:	80 81       	ld	r24, Z
    31ca:	91 81       	ldd	r25, Z+1	; 0x01
    31cc:	a2 81       	ldd	r26, Z+2	; 0x02
    31ce:	b3 81       	ldd	r27, Z+3	; 0x03
    31d0:	f9 01       	movw	r30, r18
    31d2:	86 87       	std	Z+14, r24	; 0x0e
    31d4:	97 87       	std	Z+15, r25	; 0x0f
    31d6:	a0 8b       	std	Z+16, r26	; 0x10
    31d8:	b1 8b       	std	Z+17, r27	; 0x11
    31da:	fe 01       	movw	r30, r28
    31dc:	e1 5b       	subi	r30, 0xB1	; 177
    31de:	ff 4f       	sbci	r31, 0xFF	; 255
    31e0:	80 81       	ld	r24, Z
    31e2:	f9 01       	movw	r30, r18
    31e4:	82 8b       	std	Z+18, r24	; 0x12
    31e6:	fe 01       	movw	r30, r28
    31e8:	e0 5b       	subi	r30, 0xB0	; 176
    31ea:	ff 4f       	sbci	r31, 0xFF	; 255
    31ec:	80 81       	ld	r24, Z
    31ee:	91 81       	ldd	r25, Z+1	; 0x01
    31f0:	a2 81       	ldd	r26, Z+2	; 0x02
    31f2:	b3 81       	ldd	r27, Z+3	; 0x03
    31f4:	f9 01       	movw	r30, r18
    31f6:	83 8b       	std	Z+19, r24	; 0x13
    31f8:	94 8b       	std	Z+20, r25	; 0x14
    31fa:	a5 8b       	std	Z+21, r26	; 0x15
    31fc:	b6 8b       	std	Z+22, r27	; 0x16
    31fe:	fe 01       	movw	r30, r28
    3200:	ec 5a       	subi	r30, 0xAC	; 172
    3202:	ff 4f       	sbci	r31, 0xFF	; 255
    3204:	80 81       	ld	r24, Z
    3206:	91 81       	ldd	r25, Z+1	; 0x01
    3208:	a2 81       	ldd	r26, Z+2	; 0x02
    320a:	b3 81       	ldd	r27, Z+3	; 0x03
    320c:	f9 01       	movw	r30, r18
    320e:	87 8b       	std	Z+23, r24	; 0x17
    3210:	90 8f       	std	Z+24, r25	; 0x18
    3212:	a1 8f       	std	Z+25, r26	; 0x19
    3214:	b2 8f       	std	Z+26, r27	; 0x1a
    3216:	fe 01       	movw	r30, r28
    3218:	e8 5a       	subi	r30, 0xA8	; 168
    321a:	ff 4f       	sbci	r31, 0xFF	; 255
    321c:	80 81       	ld	r24, Z
    321e:	91 81       	ldd	r25, Z+1	; 0x01
    3220:	f9 01       	movw	r30, r18
    3222:	94 8f       	std	Z+28, r25	; 0x1c
    3224:	83 8f       	std	Z+27, r24	; 0x1b
    3226:	8c 2d       	mov	r24, r12
    3228:	99 2d       	mov	r25, r9
  return File(file, filepath);
    322a:	b9 01       	movw	r22, r18
    322c:	a7 01       	movw	r20, r14
    322e:	7c dd       	rcall	.-1288   	; 0x2d28 <_ZN4FileC1E6SdFilePKc>
    3230:	8c 2d       	mov	r24, r12
    3232:	99 2d       	mov	r25, r9
    3234:	ca 58       	subi	r28, 0x8A	; 138
}
    3236:	df 4f       	sbci	r29, 0xFF	; 255
    3238:	0f b6       	in	r0, 0x3f	; 63
    323a:	f8 94       	cli
    323c:	de bf       	out	0x3e, r29	; 62
    323e:	0f be       	out	0x3f, r0	; 63
    3240:	cd bf       	out	0x3d, r28	; 61
    3242:	cf 91       	pop	r28
    3244:	df 91       	pop	r29
    3246:	1f 91       	pop	r17
    3248:	0f 91       	pop	r16
    324a:	ff 90       	pop	r15
    324c:	ef 90       	pop	r14
    324e:	df 90       	pop	r13
    3250:	cf 90       	pop	r12
    3252:	bf 90       	pop	r11
    3254:	af 90       	pop	r10
    3256:	9f 90       	pop	r9
    3258:	08 95       	ret

0000325a <_ZN7SDClass5beginEh>:

/* Implementation of class used to create `SDCard` object. */



boolean SDClass::begin(uint8_t csPin) {
    325a:	ef 92       	push	r14
    325c:	ff 92       	push	r15
    325e:	0f 93       	push	r16
    3260:	1f 93       	push	r17
    3262:	cf 93       	push	r28
    3264:	df 93       	push	r29
    3266:	ec 01       	movw	r28, r24
    3268:	16 2f       	mov	r17, r22
    Performs the initialisation required by the sdfatlib library.

    Return true if initialization succeeds, false otherwise.

   */
  root.close();
    326a:	5a e2       	ldi	r21, 0x2A	; 42
    326c:	e5 2e       	mov	r14, r21
    326e:	f1 2c       	mov	r15, r1
    3270:	e8 0e       	add	r14, r24
    3272:	f9 1e       	adc	r15, r25
    3274:	c7 01       	movw	r24, r14
    3276:	0e 94 a4 0a 	call	0x1548	; 0x1548 <_ZN6SdFile5closeEv>
  return card.init(SPI_HALF_SPEED, csPin) &&
         volume.init(card) &&
         root.openRoot(volume);
    327a:	ce 01       	movw	r24, r28
    327c:	61 e0       	ldi	r22, 0x01	; 1
    327e:	41 2f       	mov	r20, r17
    3280:	0e 94 8d 08 	call	0x111a	; 0x111a <_ZN7Sd2Card4initEhh>
    3284:	88 23       	and	r24, r24
    3286:	b9 f0       	breq	.+46     	; 0x32b6 <_ZN7SDClass5beginEh+0x5c>
    3288:	8e 01       	movw	r16, r28
    328a:	04 5f       	subi	r16, 0xF4	; 244
    328c:	1f 4f       	sbci	r17, 0xFF	; 255
   * \return The value one, true, is returned for success and
   * the value zero, false, is returned for failure.  Reasons for
   * failure include not finding a valid partition, not finding a valid
   * FAT file system or an I/O error.
   */
  uint8_t init(Sd2Card* dev) { return init(dev, 1) ? true : init(dev, 0);}
    328e:	c8 01       	movw	r24, r16
    3290:	be 01       	movw	r22, r28
    3292:	41 e0       	ldi	r20, 0x01	; 1
    3294:	24 d8       	rcall	.-4024   	; 0x22de <_ZN8SdVolume4initEP7Sd2Cardh>
    3296:	88 23       	and	r24, r24
    3298:	31 f4       	brne	.+12     	; 0x32a6 <_ZN7SDClass5beginEh+0x4c>
    329a:	c8 01       	movw	r24, r16
    329c:	be 01       	movw	r22, r28
    329e:	40 e0       	ldi	r20, 0x00	; 0
    32a0:	1e d8       	rcall	.-4036   	; 0x22de <_ZN8SdVolume4initEP7Sd2Cardh>
    32a2:	88 23       	and	r24, r24
    32a4:	41 f0       	breq	.+16     	; 0x32b6 <_ZN7SDClass5beginEh+0x5c>
    32a6:	c7 01       	movw	r24, r14
    32a8:	b8 01       	movw	r22, r16
   */
  uint8_t open(SdFile& dirFile, uint16_t index, uint8_t oflag) {  // NOLINT
    return open(&dirFile, index, oflag);
  }
  /** \deprecated Use: uint8_t SdFile::openRoot(SdVolume* vol); */
  uint8_t openRoot(SdVolume& vol) {return openRoot(&vol);}  // NOLINT
    32aa:	0e 94 d1 0c 	call	0x19a2	; 0x19a2 <_ZN6SdFile8openRootEP8SdVolume>
    32ae:	88 23       	and	r24, r24
    32b0:	19 f0       	breq	.+6      	; 0x32b8 <_ZN7SDClass5beginEh+0x5e>
    32b2:	81 e0       	ldi	r24, 0x01	; 1
    32b4:	01 c0       	rjmp	.+2      	; 0x32b8 <_ZN7SDClass5beginEh+0x5e>
    32b6:	80 e0       	ldi	r24, 0x00	; 0
    32b8:	df 91       	pop	r29
    32ba:	cf 91       	pop	r28
}
    32bc:	1f 91       	pop	r17
    32be:	0f 91       	pop	r16
    32c0:	ff 90       	pop	r15
    32c2:	ef 90       	pop	r14
    32c4:	08 95       	ret

000032c6 <_ZN8SPIClass3endEv>:
  pinMode(MOSI, OUTPUT);
}


void SPIClass::end() {
  SPCR &= ~_BV(SPE);
    32c6:	8c b5       	in	r24, 0x2c	; 44
    32c8:	8f 7b       	andi	r24, 0xBF	; 191
    32ca:	8c bd       	out	0x2c, r24	; 44
}
    32cc:	08 95       	ret

000032ce <_ZN8SPIClass11setBitOrderEh>:

void SPIClass::setBitOrder(uint8_t bitOrder)
{
  if(bitOrder == LSBFIRST) {
    32ce:	88 23       	and	r24, r24
    32d0:	19 f4       	brne	.+6      	; 0x32d8 <_ZN8SPIClass11setBitOrderEh+0xa>
    SPCR |= _BV(DORD);
    32d2:	8c b5       	in	r24, 0x2c	; 44
    32d4:	80 62       	ori	r24, 0x20	; 32
    32d6:	02 c0       	rjmp	.+4      	; 0x32dc <_ZN8SPIClass11setBitOrderEh+0xe>
  } else {
    SPCR &= ~(_BV(DORD));
    32d8:	8c b5       	in	r24, 0x2c	; 44
    32da:	8f 7d       	andi	r24, 0xDF	; 223
    32dc:	8c bd       	out	0x2c, r24	; 44
    32de:	08 95       	ret

000032e0 <_ZN8SPIClass11setDataModeEh>:
  }
}

void SPIClass::setDataMode(uint8_t mode)
{
  SPCR = (SPCR & ~SPI_MODE_MASK) | mode;
    32e0:	9c b5       	in	r25, 0x2c	; 44
    32e2:	93 7f       	andi	r25, 0xF3	; 243
    32e4:	98 2b       	or	r25, r24
    32e6:	9c bd       	out	0x2c, r25	; 44
}
    32e8:	08 95       	ret

000032ea <_ZN8SPIClass5beginEv>:
SPIClass SPI;

void SPIClass::begin() {

  // Set SS to high so a connected chip will be "deselected" by default
  digitalWrite(SS, HIGH);
    32ea:	8a e0       	ldi	r24, 0x0A	; 10
    32ec:	61 e0       	ldi	r22, 0x01	; 1
    32ee:	09 d5       	rcall	.+2578   	; 0x3d02 <digitalWrite>
    32f0:	8a e0       	ldi	r24, 0x0A	; 10

  // When the SS pin is set as OUTPUT, it can be used as
  // a general purpose output port (it doesn't influence
  // SPI operations).
  pinMode(SS, OUTPUT);
    32f2:	61 e0       	ldi	r22, 0x01	; 1
    32f4:	c7 d4       	rcall	.+2446   	; 0x3c84 <pinMode>
    32f6:	8c b5       	in	r24, 0x2c	; 44
    32f8:	80 61       	ori	r24, 0x10	; 16

  // Warning: if the SS pin ever becomes a LOW INPUT then SPI
  // automatically switches to Slave, so the data direction of
  // the SS pin MUST be kept as OUTPUT.
  SPCR |= _BV(MSTR);
    32fa:	8c bd       	out	0x2c, r24	; 44
    32fc:	8c b5       	in	r24, 0x2c	; 44
    32fe:	80 64       	ori	r24, 0x40	; 64
  SPCR |= _BV(SPE);
    3300:	8c bd       	out	0x2c, r24	; 44
    3302:	8d e0       	ldi	r24, 0x0D	; 13
    3304:	61 e0       	ldi	r22, 0x01	; 1
  // MISO pin automatically overrides to INPUT.
  // By doing this AFTER enabling SPI, we avoid accidentally
  // clocking in a single bit since the lines go directly
  // from "input" to SPI control.  
  // http://code.google.com/p/arduino/issues/detail?id=888
  pinMode(SCK, OUTPUT);
    3306:	be d4       	rcall	.+2428   	; 0x3c84 <pinMode>
    3308:	8b e0       	ldi	r24, 0x0B	; 11
    330a:	61 e0       	ldi	r22, 0x01	; 1
    330c:	bb c4       	rjmp	.+2422   	; 0x3c84 <pinMode>

0000330e <malloc>:
    330e:	0f 93       	push	r16
    3310:	1f 93       	push	r17
    3312:	cf 93       	push	r28
    3314:	df 93       	push	r29
    3316:	bc 01       	movw	r22, r24
    3318:	82 30       	cpi	r24, 0x02	; 2
    331a:	91 05       	cpc	r25, r1
    331c:	10 f4       	brcc	.+4      	; 0x3322 <malloc+0x14>
    331e:	62 e0       	ldi	r22, 0x02	; 2
    3320:	70 e0       	ldi	r23, 0x00	; 0
    3322:	e0 91 80 06 	lds	r30, 0x0680
    3326:	f0 91 81 06 	lds	r31, 0x0681
    332a:	40 e0       	ldi	r20, 0x00	; 0
    332c:	50 e0       	ldi	r21, 0x00	; 0
    332e:	a0 e0       	ldi	r26, 0x00	; 0
    3330:	b0 e0       	ldi	r27, 0x00	; 0
    3332:	24 c0       	rjmp	.+72     	; 0x337c <malloc+0x6e>
    3334:	80 81       	ld	r24, Z
    3336:	91 81       	ldd	r25, Z+1	; 0x01
    3338:	86 17       	cp	r24, r22
    333a:	97 07       	cpc	r25, r23
    333c:	d0 f0       	brcs	.+52     	; 0x3372 <malloc+0x64>
    333e:	86 17       	cp	r24, r22
    3340:	97 07       	cpc	r25, r23
    3342:	71 f4       	brne	.+28     	; 0x3360 <malloc+0x52>
    3344:	82 81       	ldd	r24, Z+2	; 0x02
    3346:	93 81       	ldd	r25, Z+3	; 0x03
    3348:	10 97       	sbiw	r26, 0x00	; 0
    334a:	29 f0       	breq	.+10     	; 0x3356 <malloc+0x48>
    334c:	13 96       	adiw	r26, 0x03	; 3
    334e:	9c 93       	st	X, r25
    3350:	8e 93       	st	-X, r24
    3352:	12 97       	sbiw	r26, 0x02	; 2
    3354:	2c c0       	rjmp	.+88     	; 0x33ae <malloc+0xa0>
    3356:	90 93 81 06 	sts	0x0681, r25
    335a:	80 93 80 06 	sts	0x0680, r24
    335e:	27 c0       	rjmp	.+78     	; 0x33ae <malloc+0xa0>
    3360:	41 15       	cp	r20, r1
    3362:	51 05       	cpc	r21, r1
    3364:	19 f0       	breq	.+6      	; 0x336c <malloc+0x5e>
    3366:	84 17       	cp	r24, r20
    3368:	95 07       	cpc	r25, r21
    336a:	18 f4       	brcc	.+6      	; 0x3372 <malloc+0x64>
    336c:	8d 01       	movw	r16, r26
    336e:	ac 01       	movw	r20, r24
    3370:	ef 01       	movw	r28, r30
    3372:	df 01       	movw	r26, r30
    3374:	82 81       	ldd	r24, Z+2	; 0x02
    3376:	93 81       	ldd	r25, Z+3	; 0x03
    3378:	9c 01       	movw	r18, r24
    337a:	f9 01       	movw	r30, r18
    337c:	30 97       	sbiw	r30, 0x00	; 0
    337e:	d1 f6       	brne	.-76     	; 0x3334 <malloc+0x26>
    3380:	41 15       	cp	r20, r1
    3382:	51 05       	cpc	r21, r1
    3384:	f9 f0       	breq	.+62     	; 0x33c4 <malloc+0xb6>
    3386:	ca 01       	movw	r24, r20
    3388:	86 1b       	sub	r24, r22
    338a:	97 0b       	sbc	r25, r23
    338c:	84 30       	cpi	r24, 0x04	; 4
    338e:	91 05       	cpc	r25, r1
    3390:	80 f4       	brcc	.+32     	; 0x33b2 <malloc+0xa4>
    3392:	8a 81       	ldd	r24, Y+2	; 0x02
    3394:	9b 81       	ldd	r25, Y+3	; 0x03
    3396:	01 15       	cp	r16, r1
    3398:	11 05       	cpc	r17, r1
    339a:	21 f0       	breq	.+8      	; 0x33a4 <malloc+0x96>
    339c:	f8 01       	movw	r30, r16
    339e:	93 83       	std	Z+3, r25	; 0x03
    33a0:	82 83       	std	Z+2, r24	; 0x02
    33a2:	04 c0       	rjmp	.+8      	; 0x33ac <malloc+0x9e>
    33a4:	90 93 81 06 	sts	0x0681, r25
    33a8:	80 93 80 06 	sts	0x0680, r24
    33ac:	fe 01       	movw	r30, r28
    33ae:	32 96       	adiw	r30, 0x02	; 2
    33b0:	45 c0       	rjmp	.+138    	; 0x343c <malloc+0x12e>
    33b2:	fe 01       	movw	r30, r28
    33b4:	e8 0f       	add	r30, r24
    33b6:	f9 1f       	adc	r31, r25
    33b8:	61 93       	st	Z+, r22
    33ba:	71 93       	st	Z+, r23
    33bc:	02 97       	sbiw	r24, 0x02	; 2
    33be:	99 83       	std	Y+1, r25	; 0x01
    33c0:	88 83       	st	Y, r24
    33c2:	3c c0       	rjmp	.+120    	; 0x343c <malloc+0x12e>
    33c4:	80 91 7e 06 	lds	r24, 0x067E
    33c8:	90 91 7f 06 	lds	r25, 0x067F
    33cc:	89 2b       	or	r24, r25
    33ce:	41 f4       	brne	.+16     	; 0x33e0 <malloc+0xd2>
    33d0:	80 91 2e 02 	lds	r24, 0x022E
    33d4:	90 91 2f 02 	lds	r25, 0x022F
    33d8:	90 93 7f 06 	sts	0x067F, r25
    33dc:	80 93 7e 06 	sts	0x067E, r24
    33e0:	40 91 30 02 	lds	r20, 0x0230
    33e4:	50 91 31 02 	lds	r21, 0x0231
    33e8:	41 15       	cp	r20, r1
    33ea:	51 05       	cpc	r21, r1
    33ec:	41 f4       	brne	.+16     	; 0x33fe <malloc+0xf0>
    33ee:	4d b7       	in	r20, 0x3d	; 61
    33f0:	5e b7       	in	r21, 0x3e	; 62
    33f2:	80 91 2c 02 	lds	r24, 0x022C
    33f6:	90 91 2d 02 	lds	r25, 0x022D
    33fa:	48 1b       	sub	r20, r24
    33fc:	59 0b       	sbc	r21, r25
    33fe:	20 91 7e 06 	lds	r18, 0x067E
    3402:	30 91 7f 06 	lds	r19, 0x067F
    3406:	24 17       	cp	r18, r20
    3408:	35 07       	cpc	r19, r21
    340a:	b0 f4       	brcc	.+44     	; 0x3438 <malloc+0x12a>
    340c:	ca 01       	movw	r24, r20
    340e:	82 1b       	sub	r24, r18
    3410:	93 0b       	sbc	r25, r19
    3412:	86 17       	cp	r24, r22
    3414:	97 07       	cpc	r25, r23
    3416:	80 f0       	brcs	.+32     	; 0x3438 <malloc+0x12a>
    3418:	ab 01       	movw	r20, r22
    341a:	4e 5f       	subi	r20, 0xFE	; 254
    341c:	5f 4f       	sbci	r21, 0xFF	; 255
    341e:	84 17       	cp	r24, r20
    3420:	95 07       	cpc	r25, r21
    3422:	50 f0       	brcs	.+20     	; 0x3438 <malloc+0x12a>
    3424:	42 0f       	add	r20, r18
    3426:	53 1f       	adc	r21, r19
    3428:	50 93 7f 06 	sts	0x067F, r21
    342c:	40 93 7e 06 	sts	0x067E, r20
    3430:	f9 01       	movw	r30, r18
    3432:	61 93       	st	Z+, r22
    3434:	71 93       	st	Z+, r23
    3436:	02 c0       	rjmp	.+4      	; 0x343c <malloc+0x12e>
    3438:	e0 e0       	ldi	r30, 0x00	; 0
    343a:	f0 e0       	ldi	r31, 0x00	; 0
    343c:	cf 01       	movw	r24, r30
    343e:	df 91       	pop	r29
    3440:	cf 91       	pop	r28
    3442:	1f 91       	pop	r17
    3444:	0f 91       	pop	r16
    3446:	08 95       	ret

00003448 <free>:
    3448:	cf 93       	push	r28
    344a:	df 93       	push	r29
    344c:	9c 01       	movw	r18, r24
    344e:	00 97       	sbiw	r24, 0x00	; 0
    3450:	09 f4       	brne	.+2      	; 0x3454 <free+0xc>
    3452:	8f c0       	rjmp	.+286    	; 0x3572 <free+0x12a>
    3454:	ec 01       	movw	r28, r24
    3456:	22 97       	sbiw	r28, 0x02	; 2
    3458:	1b 82       	std	Y+3, r1	; 0x03
    345a:	1a 82       	std	Y+2, r1	; 0x02
    345c:	60 91 80 06 	lds	r22, 0x0680
    3460:	70 91 81 06 	lds	r23, 0x0681
    3464:	61 15       	cp	r22, r1
    3466:	71 05       	cpc	r23, r1
    3468:	81 f4       	brne	.+32     	; 0x348a <free+0x42>
    346a:	88 81       	ld	r24, Y
    346c:	99 81       	ldd	r25, Y+1	; 0x01
    346e:	82 0f       	add	r24, r18
    3470:	93 1f       	adc	r25, r19
    3472:	20 91 7e 06 	lds	r18, 0x067E
    3476:	30 91 7f 06 	lds	r19, 0x067F
    347a:	28 17       	cp	r18, r24
    347c:	39 07       	cpc	r19, r25
    347e:	39 f5       	brne	.+78     	; 0x34ce <free+0x86>
    3480:	d0 93 7f 06 	sts	0x067F, r29
    3484:	c0 93 7e 06 	sts	0x067E, r28
    3488:	74 c0       	rjmp	.+232    	; 0x3572 <free+0x12a>
    348a:	db 01       	movw	r26, r22
    348c:	40 e0       	ldi	r20, 0x00	; 0
    348e:	50 e0       	ldi	r21, 0x00	; 0
    3490:	ac 17       	cp	r26, r28
    3492:	bd 07       	cpc	r27, r29
    3494:	08 f1       	brcs	.+66     	; 0x34d8 <free+0x90>
    3496:	bb 83       	std	Y+3, r27	; 0x03
    3498:	aa 83       	std	Y+2, r26	; 0x02
    349a:	fe 01       	movw	r30, r28
    349c:	21 91       	ld	r18, Z+
    349e:	31 91       	ld	r19, Z+
    34a0:	e2 0f       	add	r30, r18
    34a2:	f3 1f       	adc	r31, r19
    34a4:	ae 17       	cp	r26, r30
    34a6:	bf 07       	cpc	r27, r31
    34a8:	79 f4       	brne	.+30     	; 0x34c8 <free+0x80>
    34aa:	8d 91       	ld	r24, X+
    34ac:	9c 91       	ld	r25, X
    34ae:	11 97       	sbiw	r26, 0x01	; 1
    34b0:	28 0f       	add	r18, r24
    34b2:	39 1f       	adc	r19, r25
    34b4:	2e 5f       	subi	r18, 0xFE	; 254
    34b6:	3f 4f       	sbci	r19, 0xFF	; 255
    34b8:	39 83       	std	Y+1, r19	; 0x01
    34ba:	28 83       	st	Y, r18
    34bc:	12 96       	adiw	r26, 0x02	; 2
    34be:	8d 91       	ld	r24, X+
    34c0:	9c 91       	ld	r25, X
    34c2:	13 97       	sbiw	r26, 0x03	; 3
    34c4:	9b 83       	std	Y+3, r25	; 0x03
    34c6:	8a 83       	std	Y+2, r24	; 0x02
    34c8:	41 15       	cp	r20, r1
    34ca:	51 05       	cpc	r21, r1
    34cc:	71 f4       	brne	.+28     	; 0x34ea <free+0xa2>
    34ce:	d0 93 81 06 	sts	0x0681, r29
    34d2:	c0 93 80 06 	sts	0x0680, r28
    34d6:	4d c0       	rjmp	.+154    	; 0x3572 <free+0x12a>
    34d8:	12 96       	adiw	r26, 0x02	; 2
    34da:	8d 91       	ld	r24, X+
    34dc:	9c 91       	ld	r25, X
    34de:	13 97       	sbiw	r26, 0x03	; 3
    34e0:	ad 01       	movw	r20, r26
    34e2:	00 97       	sbiw	r24, 0x00	; 0
    34e4:	11 f0       	breq	.+4      	; 0x34ea <free+0xa2>
    34e6:	dc 01       	movw	r26, r24
    34e8:	d3 cf       	rjmp	.-90     	; 0x3490 <free+0x48>
    34ea:	da 01       	movw	r26, r20
    34ec:	13 96       	adiw	r26, 0x03	; 3
    34ee:	dc 93       	st	X, r29
    34f0:	ce 93       	st	-X, r28
    34f2:	12 97       	sbiw	r26, 0x02	; 2
    34f4:	fa 01       	movw	r30, r20
    34f6:	21 91       	ld	r18, Z+
    34f8:	31 91       	ld	r19, Z+
    34fa:	e2 0f       	add	r30, r18
    34fc:	f3 1f       	adc	r31, r19
    34fe:	ce 17       	cp	r28, r30
    3500:	df 07       	cpc	r29, r31
    3502:	69 f4       	brne	.+26     	; 0x351e <free+0xd6>
    3504:	88 81       	ld	r24, Y
    3506:	99 81       	ldd	r25, Y+1	; 0x01
    3508:	28 0f       	add	r18, r24
    350a:	39 1f       	adc	r19, r25
    350c:	2e 5f       	subi	r18, 0xFE	; 254
    350e:	3f 4f       	sbci	r19, 0xFF	; 255
    3510:	fa 01       	movw	r30, r20
    3512:	31 83       	std	Z+1, r19	; 0x01
    3514:	20 83       	st	Z, r18
    3516:	8a 81       	ldd	r24, Y+2	; 0x02
    3518:	9b 81       	ldd	r25, Y+3	; 0x03
    351a:	93 83       	std	Z+3, r25	; 0x03
    351c:	82 83       	std	Z+2, r24	; 0x02
    351e:	e0 e0       	ldi	r30, 0x00	; 0
    3520:	f0 e0       	ldi	r31, 0x00	; 0
    3522:	db 01       	movw	r26, r22
    3524:	12 96       	adiw	r26, 0x02	; 2
    3526:	8d 91       	ld	r24, X+
    3528:	9c 91       	ld	r25, X
    352a:	13 97       	sbiw	r26, 0x03	; 3
    352c:	00 97       	sbiw	r24, 0x00	; 0
    352e:	19 f0       	breq	.+6      	; 0x3536 <free+0xee>
    3530:	bc 01       	movw	r22, r24
    3532:	fd 01       	movw	r30, r26
    3534:	f6 cf       	rjmp	.-20     	; 0x3522 <free+0xda>
    3536:	ab 01       	movw	r20, r22
    3538:	4e 5f       	subi	r20, 0xFE	; 254
    353a:	5f 4f       	sbci	r21, 0xFF	; 255
    353c:	db 01       	movw	r26, r22
    353e:	8d 91       	ld	r24, X+
    3540:	9c 91       	ld	r25, X
    3542:	84 0f       	add	r24, r20
    3544:	95 1f       	adc	r25, r21
    3546:	20 91 7e 06 	lds	r18, 0x067E
    354a:	30 91 7f 06 	lds	r19, 0x067F
    354e:	28 17       	cp	r18, r24
    3550:	39 07       	cpc	r19, r25
    3552:	79 f4       	brne	.+30     	; 0x3572 <free+0x12a>
    3554:	30 97       	sbiw	r30, 0x00	; 0
    3556:	29 f4       	brne	.+10     	; 0x3562 <free+0x11a>
    3558:	10 92 81 06 	sts	0x0681, r1
    355c:	10 92 80 06 	sts	0x0680, r1
    3560:	02 c0       	rjmp	.+4      	; 0x3566 <free+0x11e>
    3562:	13 82       	std	Z+3, r1	; 0x03
    3564:	12 82       	std	Z+2, r1	; 0x02
    3566:	42 50       	subi	r20, 0x02	; 2
    3568:	50 40       	sbci	r21, 0x00	; 0
    356a:	50 93 7f 06 	sts	0x067F, r21
    356e:	40 93 7e 06 	sts	0x067E, r20
    3572:	df 91       	pop	r29
    3574:	cf 91       	pop	r28
    3576:	08 95       	ret

00003578 <_Z11serialEventv>:
    3578:	08 95       	ret

0000357a <__vector_18>:
    357a:	1f 92       	push	r1
    357c:	0f 92       	push	r0
    357e:	0f b6       	in	r0, 0x3f	; 63
    3580:	0f 92       	push	r0
    3582:	11 24       	eor	r1, r1
    3584:	2f 93       	push	r18
    3586:	3f 93       	push	r19
    3588:	4f 93       	push	r20
    358a:	8f 93       	push	r24
    358c:	9f 93       	push	r25
    358e:	ef 93       	push	r30
    3590:	ff 93       	push	r31
    3592:	80 91 c0 00 	lds	r24, 0x00C0
    3596:	82 fd       	sbrc	r24, 2
    3598:	1d c0       	rjmp	.+58     	; 0x35d4 <__vector_18+0x5a>
    359a:	40 91 c6 00 	lds	r20, 0x00C6
    359e:	20 91 0b 06 	lds	r18, 0x060B
    35a2:	30 91 0c 06 	lds	r19, 0x060C
    35a6:	2f 5f       	subi	r18, 0xFF	; 255
    35a8:	3f 4f       	sbci	r19, 0xFF	; 255
    35aa:	2f 73       	andi	r18, 0x3F	; 63
    35ac:	30 70       	andi	r19, 0x00	; 0
    35ae:	80 91 0d 06 	lds	r24, 0x060D
    35b2:	90 91 0e 06 	lds	r25, 0x060E
    35b6:	28 17       	cp	r18, r24
    35b8:	39 07       	cpc	r19, r25
    35ba:	71 f0       	breq	.+28     	; 0x35d8 <__vector_18+0x5e>
    35bc:	e0 91 0b 06 	lds	r30, 0x060B
    35c0:	f0 91 0c 06 	lds	r31, 0x060C
    35c4:	e5 53       	subi	r30, 0x35	; 53
    35c6:	fa 4f       	sbci	r31, 0xFA	; 250
    35c8:	40 83       	st	Z, r20
    35ca:	30 93 0c 06 	sts	0x060C, r19
    35ce:	20 93 0b 06 	sts	0x060B, r18
    35d2:	02 c0       	rjmp	.+4      	; 0x35d8 <__vector_18+0x5e>
    35d4:	80 91 c6 00 	lds	r24, 0x00C6
    35d8:	ff 91       	pop	r31
    35da:	ef 91       	pop	r30
    35dc:	9f 91       	pop	r25
    35de:	8f 91       	pop	r24
    35e0:	4f 91       	pop	r20
    35e2:	3f 91       	pop	r19
    35e4:	2f 91       	pop	r18
    35e6:	0f 90       	pop	r0
    35e8:	0f be       	out	0x3f, r0	; 63
    35ea:	0f 90       	pop	r0
    35ec:	1f 90       	pop	r1
    35ee:	18 95       	reti

000035f0 <_Z14serialEventRunv>:
    35f0:	e0 91 5f 06 	lds	r30, 0x065F
    35f4:	f0 91 60 06 	lds	r31, 0x0660
    35f8:	e0 5c       	subi	r30, 0xC0	; 192
    35fa:	ff 4f       	sbci	r31, 0xFF	; 255
    35fc:	81 91       	ld	r24, Z+
    35fe:	91 91       	ld	r25, Z+
    3600:	20 81       	ld	r18, Z
    3602:	31 81       	ldd	r19, Z+1	; 0x01
    3604:	82 1b       	sub	r24, r18
    3606:	93 0b       	sbc	r25, r19
    3608:	8f 73       	andi	r24, 0x3F	; 63
    360a:	90 70       	andi	r25, 0x00	; 0
    360c:	89 2b       	or	r24, r25
    360e:	09 f0       	breq	.+2      	; 0x3612 <_Z14serialEventRunv+0x22>
    3610:	b3 cf       	rjmp	.-154    	; 0x3578 <_Z11serialEventv>
    3612:	08 95       	ret

00003614 <__vector_19>:
    3614:	1f 92       	push	r1
    3616:	0f 92       	push	r0
    3618:	0f b6       	in	r0, 0x3f	; 63
    361a:	0f 92       	push	r0
    361c:	11 24       	eor	r1, r1
    361e:	2f 93       	push	r18
    3620:	3f 93       	push	r19
    3622:	8f 93       	push	r24
    3624:	9f 93       	push	r25
    3626:	ef 93       	push	r30
    3628:	ff 93       	push	r31
    362a:	20 91 4f 06 	lds	r18, 0x064F
    362e:	30 91 50 06 	lds	r19, 0x0650
    3632:	80 91 51 06 	lds	r24, 0x0651
    3636:	90 91 52 06 	lds	r25, 0x0652
    363a:	28 17       	cp	r18, r24
    363c:	39 07       	cpc	r19, r25
    363e:	31 f4       	brne	.+12     	; 0x364c <__vector_19+0x38>
    3640:	80 91 c1 00 	lds	r24, 0x00C1
    3644:	8f 7d       	andi	r24, 0xDF	; 223
    3646:	80 93 c1 00 	sts	0x00C1, r24
    364a:	14 c0       	rjmp	.+40     	; 0x3674 <__vector_19+0x60>
    364c:	e0 91 51 06 	lds	r30, 0x0651
    3650:	f0 91 52 06 	lds	r31, 0x0652
    3654:	e1 5f       	subi	r30, 0xF1	; 241
    3656:	f9 4f       	sbci	r31, 0xF9	; 249
    3658:	20 81       	ld	r18, Z
    365a:	80 91 51 06 	lds	r24, 0x0651
    365e:	90 91 52 06 	lds	r25, 0x0652
    3662:	01 96       	adiw	r24, 0x01	; 1
    3664:	8f 73       	andi	r24, 0x3F	; 63
    3666:	90 70       	andi	r25, 0x00	; 0
    3668:	90 93 52 06 	sts	0x0652, r25
    366c:	80 93 51 06 	sts	0x0651, r24
    3670:	20 93 c6 00 	sts	0x00C6, r18
    3674:	ff 91       	pop	r31
    3676:	ef 91       	pop	r30
    3678:	9f 91       	pop	r25
    367a:	8f 91       	pop	r24
    367c:	3f 91       	pop	r19
    367e:	2f 91       	pop	r18
    3680:	0f 90       	pop	r0
    3682:	0f be       	out	0x3f, r0	; 63
    3684:	0f 90       	pop	r0
    3686:	1f 90       	pop	r1
    3688:	18 95       	reti

0000368a <_ZN14HardwareSerial5beginEmh>:
    368a:	af 92       	push	r10
    368c:	bf 92       	push	r11
    368e:	cf 92       	push	r12
    3690:	df 92       	push	r13
    3692:	ef 92       	push	r14
    3694:	ff 92       	push	r15
    3696:	0f 93       	push	r16
    3698:	1f 93       	push	r17
    369a:	cf 93       	push	r28
    369c:	df 93       	push	r29
    369e:	ec 01       	movw	r28, r24
    36a0:	7a 01       	movw	r14, r20
    36a2:	8b 01       	movw	r16, r22
    36a4:	c2 2e       	mov	r12, r18
    36a6:	dd 24       	eor	r13, r13
    36a8:	40 30       	cpi	r20, 0x00	; 0
    36aa:	81 ee       	ldi	r24, 0xE1	; 225
    36ac:	58 07       	cpc	r21, r24
    36ae:	80 e0       	ldi	r24, 0x00	; 0
    36b0:	68 07       	cpc	r22, r24
    36b2:	80 e0       	ldi	r24, 0x00	; 0
    36b4:	78 07       	cpc	r23, r24
    36b6:	11 f0       	breq	.+4      	; 0x36bc <_ZN14HardwareSerial5beginEmh+0x32>
    36b8:	dd 24       	eor	r13, r13
    36ba:	d3 94       	inc	r13
    36bc:	71 e0       	ldi	r23, 0x01	; 1
    36be:	a7 2e       	mov	r10, r23
    36c0:	b1 2c       	mov	r11, r1
    36c2:	ec 89       	ldd	r30, Y+20	; 0x14
    36c4:	fd 89       	ldd	r31, Y+21	; 0x15
    36c6:	dd 20       	and	r13, r13
    36c8:	69 f0       	breq	.+26     	; 0x36e4 <_ZN14HardwareSerial5beginEmh+0x5a>
    36ca:	c5 01       	movw	r24, r10
    36cc:	08 a0       	ldd	r0, Y+32	; 0x20
    36ce:	02 c0       	rjmp	.+4      	; 0x36d4 <_ZN14HardwareSerial5beginEmh+0x4a>
    36d0:	88 0f       	add	r24, r24
    36d2:	99 1f       	adc	r25, r25
    36d4:	0a 94       	dec	r0
    36d6:	e2 f7       	brpl	.-8      	; 0x36d0 <_ZN14HardwareSerial5beginEmh+0x46>
    36d8:	80 83       	st	Z, r24
    36da:	60 e0       	ldi	r22, 0x00	; 0
    36dc:	79 e0       	ldi	r23, 0x09	; 9
    36de:	8d e3       	ldi	r24, 0x3D	; 61
    36e0:	90 e0       	ldi	r25, 0x00	; 0
    36e2:	05 c0       	rjmp	.+10     	; 0x36ee <_ZN14HardwareSerial5beginEmh+0x64>
    36e4:	10 82       	st	Z, r1
    36e6:	60 e8       	ldi	r22, 0x80	; 128
    36e8:	74 e8       	ldi	r23, 0x84	; 132
    36ea:	8e e1       	ldi	r24, 0x1E	; 30
    36ec:	90 e0       	ldi	r25, 0x00	; 0
    36ee:	a8 01       	movw	r20, r16
    36f0:	97 01       	movw	r18, r14
    36f2:	cd d3       	rcall	.+1946   	; 0x3e8e <__udivmodsi4>
    36f4:	21 50       	subi	r18, 0x01	; 1
    36f6:	30 40       	sbci	r19, 0x00	; 0
    36f8:	40 40       	sbci	r20, 0x00	; 0
    36fa:	50 40       	sbci	r21, 0x00	; 0
    36fc:	56 95       	lsr	r21
    36fe:	47 95       	ror	r20
    3700:	37 95       	ror	r19
    3702:	27 95       	ror	r18
    3704:	80 e1       	ldi	r24, 0x10	; 16
    3706:	20 30       	cpi	r18, 0x00	; 0
    3708:	38 07       	cpc	r19, r24
    370a:	20 f0       	brcs	.+8      	; 0x3714 <_ZN14HardwareSerial5beginEmh+0x8a>
    370c:	dd 20       	and	r13, r13
    370e:	11 f0       	breq	.+4      	; 0x3714 <_ZN14HardwareSerial5beginEmh+0x8a>
    3710:	dd 24       	eor	r13, r13
    3712:	d7 cf       	rjmp	.-82     	; 0x36c2 <_ZN14HardwareSerial5beginEmh+0x38>
    3714:	e8 89       	ldd	r30, Y+16	; 0x10
    3716:	f9 89       	ldd	r31, Y+17	; 0x11
    3718:	30 83       	st	Z, r19
    371a:	ea 89       	ldd	r30, Y+18	; 0x12
    371c:	fb 89       	ldd	r31, Y+19	; 0x13
    371e:	20 83       	st	Z, r18
    3720:	e8 8d       	ldd	r30, Y+24	; 0x18
    3722:	f9 8d       	ldd	r31, Y+25	; 0x19
    3724:	c0 82       	st	Z, r12
    3726:	ee 89       	ldd	r30, Y+22	; 0x16
    3728:	ff 89       	ldd	r31, Y+23	; 0x17
    372a:	40 81       	ld	r20, Z
    372c:	21 e0       	ldi	r18, 0x01	; 1
    372e:	30 e0       	ldi	r19, 0x00	; 0
    3730:	c9 01       	movw	r24, r18
    3732:	0c 8c       	ldd	r0, Y+28	; 0x1c
    3734:	02 c0       	rjmp	.+4      	; 0x373a <_ZN14HardwareSerial5beginEmh+0xb0>
    3736:	88 0f       	add	r24, r24
    3738:	99 1f       	adc	r25, r25
    373a:	0a 94       	dec	r0
    373c:	e2 f7       	brpl	.-8      	; 0x3736 <_ZN14HardwareSerial5beginEmh+0xac>
    373e:	48 2b       	or	r20, r24
    3740:	40 83       	st	Z, r20
    3742:	ee 89       	ldd	r30, Y+22	; 0x16
    3744:	ff 89       	ldd	r31, Y+23	; 0x17
    3746:	40 81       	ld	r20, Z
    3748:	c9 01       	movw	r24, r18
    374a:	0d 8c       	ldd	r0, Y+29	; 0x1d
    374c:	02 c0       	rjmp	.+4      	; 0x3752 <_ZN14HardwareSerial5beginEmh+0xc8>
    374e:	88 0f       	add	r24, r24
    3750:	99 1f       	adc	r25, r25
    3752:	0a 94       	dec	r0
    3754:	e2 f7       	brpl	.-8      	; 0x374e <_ZN14HardwareSerial5beginEmh+0xc4>
    3756:	48 2b       	or	r20, r24
    3758:	40 83       	st	Z, r20
    375a:	ee 89       	ldd	r30, Y+22	; 0x16
    375c:	ff 89       	ldd	r31, Y+23	; 0x17
    375e:	40 81       	ld	r20, Z
    3760:	c9 01       	movw	r24, r18
    3762:	0e 8c       	ldd	r0, Y+30	; 0x1e
    3764:	02 c0       	rjmp	.+4      	; 0x376a <_ZN14HardwareSerial5beginEmh+0xe0>
    3766:	88 0f       	add	r24, r24
    3768:	99 1f       	adc	r25, r25
    376a:	0a 94       	dec	r0
    376c:	e2 f7       	brpl	.-8      	; 0x3766 <_ZN14HardwareSerial5beginEmh+0xdc>
    376e:	48 2b       	or	r20, r24
    3770:	40 83       	st	Z, r20
    3772:	ee 89       	ldd	r30, Y+22	; 0x16
    3774:	ff 89       	ldd	r31, Y+23	; 0x17
    3776:	80 81       	ld	r24, Z
    3778:	0f 8c       	ldd	r0, Y+31	; 0x1f
    377a:	02 c0       	rjmp	.+4      	; 0x3780 <_ZN14HardwareSerial5beginEmh+0xf6>
    377c:	22 0f       	add	r18, r18
    377e:	33 1f       	adc	r19, r19
    3780:	0a 94       	dec	r0
    3782:	e2 f7       	brpl	.-8      	; 0x377c <_ZN14HardwareSerial5beginEmh+0xf2>
    3784:	20 95       	com	r18
    3786:	28 23       	and	r18, r24
    3788:	20 83       	st	Z, r18
    378a:	df 91       	pop	r29
    378c:	cf 91       	pop	r28
    378e:	1f 91       	pop	r17
    3790:	0f 91       	pop	r16
    3792:	ff 90       	pop	r15
    3794:	ef 90       	pop	r14
    3796:	df 90       	pop	r13
    3798:	cf 90       	pop	r12
    379a:	bf 90       	pop	r11
    379c:	af 90       	pop	r10
    379e:	08 95       	ret

000037a0 <_ZN14HardwareSerial9availableEv>:
    37a0:	dc 01       	movw	r26, r24
    37a2:	1c 96       	adiw	r26, 0x0c	; 12
    37a4:	ed 91       	ld	r30, X+
    37a6:	fc 91       	ld	r31, X
    37a8:	1d 97       	sbiw	r26, 0x0d	; 13
    37aa:	e0 5c       	subi	r30, 0xC0	; 192
    37ac:	ff 4f       	sbci	r31, 0xFF	; 255
    37ae:	21 91       	ld	r18, Z+
    37b0:	31 91       	ld	r19, Z+
    37b2:	80 81       	ld	r24, Z
    37b4:	91 81       	ldd	r25, Z+1	; 0x01
    37b6:	28 1b       	sub	r18, r24
    37b8:	39 0b       	sbc	r19, r25
    37ba:	2f 73       	andi	r18, 0x3F	; 63
    37bc:	30 70       	andi	r19, 0x00	; 0
    37be:	c9 01       	movw	r24, r18
    37c0:	08 95       	ret

000037c2 <_ZN14HardwareSerial4peekEv>:
    37c2:	dc 01       	movw	r26, r24
    37c4:	1c 96       	adiw	r26, 0x0c	; 12
    37c6:	ed 91       	ld	r30, X+
    37c8:	fc 91       	ld	r31, X
    37ca:	1d 97       	sbiw	r26, 0x0d	; 13
    37cc:	e0 5c       	subi	r30, 0xC0	; 192
    37ce:	ff 4f       	sbci	r31, 0xFF	; 255
    37d0:	20 81       	ld	r18, Z
    37d2:	31 81       	ldd	r19, Z+1	; 0x01
    37d4:	e0 54       	subi	r30, 0x40	; 64
    37d6:	f0 40       	sbci	r31, 0x00	; 0
    37d8:	df 01       	movw	r26, r30
    37da:	ae 5b       	subi	r26, 0xBE	; 190
    37dc:	bf 4f       	sbci	r27, 0xFF	; 255
    37de:	8d 91       	ld	r24, X+
    37e0:	9c 91       	ld	r25, X
    37e2:	11 97       	sbiw	r26, 0x01	; 1
    37e4:	28 17       	cp	r18, r24
    37e6:	39 07       	cpc	r19, r25
    37e8:	19 f4       	brne	.+6      	; 0x37f0 <_ZN14HardwareSerial4peekEv+0x2e>
    37ea:	2f ef       	ldi	r18, 0xFF	; 255
    37ec:	3f ef       	ldi	r19, 0xFF	; 255
    37ee:	07 c0       	rjmp	.+14     	; 0x37fe <_ZN14HardwareSerial4peekEv+0x3c>
    37f0:	8d 91       	ld	r24, X+
    37f2:	9c 91       	ld	r25, X
    37f4:	e8 0f       	add	r30, r24
    37f6:	f9 1f       	adc	r31, r25
    37f8:	80 81       	ld	r24, Z
    37fa:	28 2f       	mov	r18, r24
    37fc:	30 e0       	ldi	r19, 0x00	; 0
    37fe:	c9 01       	movw	r24, r18
    3800:	08 95       	ret

00003802 <_ZN14HardwareSerial4readEv>:
    3802:	dc 01       	movw	r26, r24
    3804:	1c 96       	adiw	r26, 0x0c	; 12
    3806:	ed 91       	ld	r30, X+
    3808:	fc 91       	ld	r31, X
    380a:	1d 97       	sbiw	r26, 0x0d	; 13
    380c:	e0 5c       	subi	r30, 0xC0	; 192
    380e:	ff 4f       	sbci	r31, 0xFF	; 255
    3810:	20 81       	ld	r18, Z
    3812:	31 81       	ldd	r19, Z+1	; 0x01
    3814:	e0 54       	subi	r30, 0x40	; 64
    3816:	f0 40       	sbci	r31, 0x00	; 0
    3818:	df 01       	movw	r26, r30
    381a:	ae 5b       	subi	r26, 0xBE	; 190
    381c:	bf 4f       	sbci	r27, 0xFF	; 255
    381e:	8d 91       	ld	r24, X+
    3820:	9c 91       	ld	r25, X
    3822:	11 97       	sbiw	r26, 0x01	; 1
    3824:	28 17       	cp	r18, r24
    3826:	39 07       	cpc	r19, r25
    3828:	19 f4       	brne	.+6      	; 0x3830 <_ZN14HardwareSerial4readEv+0x2e>
    382a:	2f ef       	ldi	r18, 0xFF	; 255
    382c:	3f ef       	ldi	r19, 0xFF	; 255
    382e:	10 c0       	rjmp	.+32     	; 0x3850 <_ZN14HardwareSerial4readEv+0x4e>
    3830:	8d 91       	ld	r24, X+
    3832:	9c 91       	ld	r25, X
    3834:	11 97       	sbiw	r26, 0x01	; 1
    3836:	e8 0f       	add	r30, r24
    3838:	f9 1f       	adc	r31, r25
    383a:	20 81       	ld	r18, Z
    383c:	8d 91       	ld	r24, X+
    383e:	9c 91       	ld	r25, X
    3840:	11 97       	sbiw	r26, 0x01	; 1
    3842:	01 96       	adiw	r24, 0x01	; 1
    3844:	8f 73       	andi	r24, 0x3F	; 63
    3846:	90 70       	andi	r25, 0x00	; 0
    3848:	11 96       	adiw	r26, 0x01	; 1
    384a:	9c 93       	st	X, r25
    384c:	8e 93       	st	-X, r24
    384e:	30 e0       	ldi	r19, 0x00	; 0
    3850:	c9 01       	movw	r24, r18
    3852:	08 95       	ret

00003854 <_ZN14HardwareSerial5flushEv>:
    3854:	dc 01       	movw	r26, r24
    3856:	91 96       	adiw	r26, 0x21	; 33
    3858:	8c 91       	ld	r24, X
    385a:	91 97       	sbiw	r26, 0x21	; 33
    385c:	88 23       	and	r24, r24
    385e:	39 f0       	breq	.+14     	; 0x386e <_ZN14HardwareSerial5flushEv+0x1a>
    3860:	54 96       	adiw	r26, 0x14	; 20
    3862:	ed 91       	ld	r30, X+
    3864:	fc 91       	ld	r31, X
    3866:	55 97       	sbiw	r26, 0x15	; 21
    3868:	80 81       	ld	r24, Z
    386a:	86 ff       	sbrs	r24, 6
    386c:	f9 cf       	rjmp	.-14     	; 0x3860 <_ZN14HardwareSerial5flushEv+0xc>
    386e:	91 96       	adiw	r26, 0x21	; 33
    3870:	1c 92       	st	X, r1
    3872:	08 95       	ret

00003874 <_ZN14HardwareSerial5writeEh>:
    3874:	cf 93       	push	r28
    3876:	df 93       	push	r29
    3878:	ec 01       	movw	r28, r24
    387a:	ee 85       	ldd	r30, Y+14	; 0x0e
    387c:	ff 85       	ldd	r31, Y+15	; 0x0f
    387e:	e0 5c       	subi	r30, 0xC0	; 192
    3880:	ff 4f       	sbci	r31, 0xFF	; 255
    3882:	20 81       	ld	r18, Z
    3884:	31 81       	ldd	r19, Z+1	; 0x01
    3886:	e0 54       	subi	r30, 0x40	; 64
    3888:	f0 40       	sbci	r31, 0x00	; 0
    388a:	2f 5f       	subi	r18, 0xFF	; 255
    388c:	3f 4f       	sbci	r19, 0xFF	; 255
    388e:	2f 73       	andi	r18, 0x3F	; 63
    3890:	30 70       	andi	r19, 0x00	; 0
    3892:	df 01       	movw	r26, r30
    3894:	ae 5b       	subi	r26, 0xBE	; 190
    3896:	bf 4f       	sbci	r27, 0xFF	; 255
    3898:	8d 91       	ld	r24, X+
    389a:	9c 91       	ld	r25, X
    389c:	11 97       	sbiw	r26, 0x01	; 1
    389e:	28 17       	cp	r18, r24
    38a0:	39 07       	cpc	r19, r25
    38a2:	d1 f3       	breq	.-12     	; 0x3898 <_ZN14HardwareSerial5writeEh+0x24>
    38a4:	e0 5c       	subi	r30, 0xC0	; 192
    38a6:	ff 4f       	sbci	r31, 0xFF	; 255
    38a8:	80 81       	ld	r24, Z
    38aa:	91 81       	ldd	r25, Z+1	; 0x01
    38ac:	e0 54       	subi	r30, 0x40	; 64
    38ae:	f0 40       	sbci	r31, 0x00	; 0
    38b0:	e8 0f       	add	r30, r24
    38b2:	f9 1f       	adc	r31, r25
    38b4:	60 83       	st	Z, r22
    38b6:	ee 85       	ldd	r30, Y+14	; 0x0e
    38b8:	ff 85       	ldd	r31, Y+15	; 0x0f
    38ba:	e0 5c       	subi	r30, 0xC0	; 192
    38bc:	ff 4f       	sbci	r31, 0xFF	; 255
    38be:	31 83       	std	Z+1, r19	; 0x01
    38c0:	20 83       	st	Z, r18
    38c2:	ee 89       	ldd	r30, Y+22	; 0x16
    38c4:	ff 89       	ldd	r31, Y+23	; 0x17
    38c6:	20 81       	ld	r18, Z
    38c8:	81 e0       	ldi	r24, 0x01	; 1
    38ca:	90 e0       	ldi	r25, 0x00	; 0
    38cc:	0f 8c       	ldd	r0, Y+31	; 0x1f
    38ce:	02 c0       	rjmp	.+4      	; 0x38d4 <_ZN14HardwareSerial5writeEh+0x60>
    38d0:	88 0f       	add	r24, r24
    38d2:	99 1f       	adc	r25, r25
    38d4:	0a 94       	dec	r0
    38d6:	e2 f7       	brpl	.-8      	; 0x38d0 <_ZN14HardwareSerial5writeEh+0x5c>
    38d8:	28 2b       	or	r18, r24
    38da:	20 83       	st	Z, r18
    38dc:	81 e0       	ldi	r24, 0x01	; 1
    38de:	89 a3       	std	Y+33, r24	; 0x21
    38e0:	ec 89       	ldd	r30, Y+20	; 0x14
    38e2:	fd 89       	ldd	r31, Y+21	; 0x15
    38e4:	80 81       	ld	r24, Z
    38e6:	80 64       	ori	r24, 0x40	; 64
    38e8:	80 83       	st	Z, r24
    38ea:	81 e0       	ldi	r24, 0x01	; 1
    38ec:	90 e0       	ldi	r25, 0x00	; 0
    38ee:	df 91       	pop	r29
    38f0:	cf 91       	pop	r28
    38f2:	08 95       	ret

000038f4 <_ZN14HardwareSerialcvbEv>:
    38f4:	81 e0       	ldi	r24, 0x01	; 1
    38f6:	08 95       	ret

000038f8 <_GLOBAL__I_rx_buffer>:
    38f8:	10 92 56 06 	sts	0x0656, r1
    38fc:	10 92 55 06 	sts	0x0655, r1
    3900:	88 ee       	ldi	r24, 0xE8	; 232
    3902:	93 e0       	ldi	r25, 0x03	; 3
    3904:	a0 e0       	ldi	r26, 0x00	; 0
    3906:	b0 e0       	ldi	r27, 0x00	; 0
    3908:	80 93 57 06 	sts	0x0657, r24
    390c:	90 93 58 06 	sts	0x0658, r25
    3910:	a0 93 59 06 	sts	0x0659, r26
    3914:	b0 93 5a 06 	sts	0x065A, r27
    3918:	8e e4       	ldi	r24, 0x4E	; 78
    391a:	92 e0       	ldi	r25, 0x02	; 2
    391c:	90 93 54 06 	sts	0x0654, r25
    3920:	80 93 53 06 	sts	0x0653, r24
    3924:	8b ec       	ldi	r24, 0xCB	; 203
    3926:	95 e0       	ldi	r25, 0x05	; 5
    3928:	90 93 60 06 	sts	0x0660, r25
    392c:	80 93 5f 06 	sts	0x065F, r24
    3930:	8f e0       	ldi	r24, 0x0F	; 15
    3932:	96 e0       	ldi	r25, 0x06	; 6
    3934:	90 93 62 06 	sts	0x0662, r25
    3938:	80 93 61 06 	sts	0x0661, r24
    393c:	85 ec       	ldi	r24, 0xC5	; 197
    393e:	90 e0       	ldi	r25, 0x00	; 0
    3940:	90 93 64 06 	sts	0x0664, r25
    3944:	80 93 63 06 	sts	0x0663, r24
    3948:	84 ec       	ldi	r24, 0xC4	; 196
    394a:	90 e0       	ldi	r25, 0x00	; 0
    394c:	90 93 66 06 	sts	0x0666, r25
    3950:	80 93 65 06 	sts	0x0665, r24
    3954:	80 ec       	ldi	r24, 0xC0	; 192
    3956:	90 e0       	ldi	r25, 0x00	; 0
    3958:	90 93 68 06 	sts	0x0668, r25
    395c:	80 93 67 06 	sts	0x0667, r24
    3960:	81 ec       	ldi	r24, 0xC1	; 193
    3962:	90 e0       	ldi	r25, 0x00	; 0
    3964:	90 93 6a 06 	sts	0x066A, r25
    3968:	80 93 69 06 	sts	0x0669, r24
    396c:	82 ec       	ldi	r24, 0xC2	; 194
    396e:	90 e0       	ldi	r25, 0x00	; 0
    3970:	90 93 6c 06 	sts	0x066C, r25
    3974:	80 93 6b 06 	sts	0x066B, r24
    3978:	86 ec       	ldi	r24, 0xC6	; 198
    397a:	90 e0       	ldi	r25, 0x00	; 0
    397c:	90 93 6e 06 	sts	0x066E, r25
    3980:	80 93 6d 06 	sts	0x066D, r24
    3984:	84 e0       	ldi	r24, 0x04	; 4
    3986:	80 93 6f 06 	sts	0x066F, r24
    398a:	83 e0       	ldi	r24, 0x03	; 3
    398c:	80 93 70 06 	sts	0x0670, r24
    3990:	87 e0       	ldi	r24, 0x07	; 7
    3992:	80 93 71 06 	sts	0x0671, r24
    3996:	85 e0       	ldi	r24, 0x05	; 5
    3998:	80 93 72 06 	sts	0x0672, r24
    399c:	81 e0       	ldi	r24, 0x01	; 1
    399e:	80 93 73 06 	sts	0x0673, r24
    39a2:	08 95       	ret

000039a4 <_ZN5Print5writeEPKhj>:
    39a4:	cf 92       	push	r12
    39a6:	df 92       	push	r13
    39a8:	ef 92       	push	r14
    39aa:	ff 92       	push	r15
    39ac:	0f 93       	push	r16
    39ae:	1f 93       	push	r17
    39b0:	cf 93       	push	r28
    39b2:	df 93       	push	r29
    39b4:	7c 01       	movw	r14, r24
    39b6:	6b 01       	movw	r12, r22
    39b8:	8a 01       	movw	r16, r20
    39ba:	c0 e0       	ldi	r28, 0x00	; 0
    39bc:	d0 e0       	ldi	r29, 0x00	; 0
    39be:	0f c0       	rjmp	.+30     	; 0x39de <_ZN5Print5writeEPKhj+0x3a>
    39c0:	d6 01       	movw	r26, r12
    39c2:	6d 91       	ld	r22, X+
    39c4:	6d 01       	movw	r12, r26
    39c6:	d7 01       	movw	r26, r14
    39c8:	ed 91       	ld	r30, X+
    39ca:	fc 91       	ld	r31, X
    39cc:	01 90       	ld	r0, Z+
    39ce:	f0 81       	ld	r31, Z
    39d0:	e0 2d       	mov	r30, r0
    39d2:	c7 01       	movw	r24, r14
    39d4:	09 95       	icall
    39d6:	c8 0f       	add	r28, r24
    39d8:	d9 1f       	adc	r29, r25
    39da:	01 50       	subi	r16, 0x01	; 1
    39dc:	10 40       	sbci	r17, 0x00	; 0
    39de:	01 15       	cp	r16, r1
    39e0:	11 05       	cpc	r17, r1
    39e2:	71 f7       	brne	.-36     	; 0x39c0 <_ZN5Print5writeEPKhj+0x1c>
    39e4:	ce 01       	movw	r24, r28
    39e6:	df 91       	pop	r29
    39e8:	cf 91       	pop	r28
    39ea:	1f 91       	pop	r17
    39ec:	0f 91       	pop	r16
    39ee:	ff 90       	pop	r15
    39f0:	ef 90       	pop	r14
    39f2:	df 90       	pop	r13
    39f4:	cf 90       	pop	r12
    39f6:	08 95       	ret

000039f8 <_ZN5Print7printlnEv>:
    39f8:	ef 92       	push	r14
    39fa:	ff 92       	push	r15
    39fc:	0f 93       	push	r16
    39fe:	1f 93       	push	r17
    3a00:	8c 01       	movw	r16, r24
    3a02:	dc 01       	movw	r26, r24
    3a04:	ed 91       	ld	r30, X+
    3a06:	fc 91       	ld	r31, X
    3a08:	01 90       	ld	r0, Z+
    3a0a:	f0 81       	ld	r31, Z
    3a0c:	e0 2d       	mov	r30, r0
    3a0e:	6d e0       	ldi	r22, 0x0D	; 13
    3a10:	09 95       	icall
    3a12:	7c 01       	movw	r14, r24
    3a14:	d8 01       	movw	r26, r16
    3a16:	ed 91       	ld	r30, X+
    3a18:	fc 91       	ld	r31, X
    3a1a:	01 90       	ld	r0, Z+
    3a1c:	f0 81       	ld	r31, Z
    3a1e:	e0 2d       	mov	r30, r0
    3a20:	c8 01       	movw	r24, r16
    3a22:	6a e0       	ldi	r22, 0x0A	; 10
    3a24:	09 95       	icall
    3a26:	9c 01       	movw	r18, r24
    3a28:	2e 0d       	add	r18, r14
    3a2a:	3f 1d       	adc	r19, r15
    3a2c:	c9 01       	movw	r24, r18
    3a2e:	1f 91       	pop	r17
    3a30:	0f 91       	pop	r16
    3a32:	ff 90       	pop	r15
    3a34:	ef 90       	pop	r14
    3a36:	08 95       	ret

00003a38 <_ZN5Print5writeEPKc>:
    3a38:	cf 93       	push	r28
    3a3a:	df 93       	push	r29
    3a3c:	ec 01       	movw	r28, r24
    3a3e:	61 15       	cp	r22, r1
    3a40:	71 05       	cpc	r23, r1
    3a42:	19 f4       	brne	.+6      	; 0x3a4a <_ZN5Print5writeEPKc+0x12>
    3a44:	20 e0       	ldi	r18, 0x00	; 0
    3a46:	30 e0       	ldi	r19, 0x00	; 0
    3a48:	0f c0       	rjmp	.+30     	; 0x3a68 <_ZN5Print5writeEPKc+0x30>
    3a4a:	db 01       	movw	r26, r22
    3a4c:	0d 90       	ld	r0, X+
    3a4e:	00 20       	and	r0, r0
    3a50:	e9 f7       	brne	.-6      	; 0x3a4c <_ZN5Print5writeEPKc+0x14>
    3a52:	11 97       	sbiw	r26, 0x01	; 1
    3a54:	a6 1b       	sub	r26, r22
    3a56:	b7 0b       	sbc	r27, r23
    3a58:	e8 81       	ld	r30, Y
    3a5a:	f9 81       	ldd	r31, Y+1	; 0x01
    3a5c:	02 80       	ldd	r0, Z+2	; 0x02
    3a5e:	f3 81       	ldd	r31, Z+3	; 0x03
    3a60:	e0 2d       	mov	r30, r0
    3a62:	ad 01       	movw	r20, r26
    3a64:	09 95       	icall
    3a66:	9c 01       	movw	r18, r24
    3a68:	c9 01       	movw	r24, r18
    3a6a:	df 91       	pop	r29
    3a6c:	cf 91       	pop	r28
    3a6e:	08 95       	ret

00003a70 <_ZN5Print5printEPKc>:
    3a70:	e3 cf       	rjmp	.-58     	; 0x3a38 <_ZN5Print5writeEPKc>
    3a72:	08 95       	ret

00003a74 <_ZN5Print7printlnEPKc>:
    3a74:	ef 92       	push	r14
    3a76:	ff 92       	push	r15
    3a78:	0f 93       	push	r16
    3a7a:	1f 93       	push	r17
    3a7c:	7c 01       	movw	r14, r24
    3a7e:	dc df       	rcall	.-72     	; 0x3a38 <_ZN5Print5writeEPKc>
    3a80:	8c 01       	movw	r16, r24
    3a82:	c7 01       	movw	r24, r14
    3a84:	b9 df       	rcall	.-142    	; 0x39f8 <_ZN5Print7printlnEv>
    3a86:	08 0f       	add	r16, r24
    3a88:	19 1f       	adc	r17, r25
    3a8a:	c8 01       	movw	r24, r16
    3a8c:	1f 91       	pop	r17
    3a8e:	0f 91       	pop	r16
    3a90:	ff 90       	pop	r15
    3a92:	ef 90       	pop	r14
    3a94:	08 95       	ret

00003a96 <main>:
    3a96:	cf 93       	push	r28
    3a98:	df 93       	push	r29
    3a9a:	b9 d0       	rcall	.+370    	; 0x3c0e <init>
    3a9c:	0e 94 68 05 	call	0xad0	; 0xad0 <setup>
    3aa0:	c8 ef       	ldi	r28, 0xF8	; 248
    3aa2:	da e1       	ldi	r29, 0x1A	; 26
    3aa4:	0e 94 eb 04 	call	0x9d6	; 0x9d6 <loop>
    3aa8:	20 97       	sbiw	r28, 0x00	; 0
    3aaa:	e1 f3       	breq	.-8      	; 0x3aa4 <main+0xe>
    3aac:	a1 dd       	rcall	.-1214   	; 0x35f0 <_Z14serialEventRunv>
    3aae:	fa cf       	rjmp	.-12     	; 0x3aa4 <main+0xe>

00003ab0 <__vector_16>:
    3ab0:	1f 92       	push	r1
    3ab2:	0f 92       	push	r0
    3ab4:	0f b6       	in	r0, 0x3f	; 63
    3ab6:	0f 92       	push	r0
    3ab8:	11 24       	eor	r1, r1
    3aba:	2f 93       	push	r18
    3abc:	3f 93       	push	r19
    3abe:	8f 93       	push	r24
    3ac0:	9f 93       	push	r25
    3ac2:	af 93       	push	r26
    3ac4:	bf 93       	push	r27
    3ac6:	80 91 79 06 	lds	r24, 0x0679
    3aca:	90 91 7a 06 	lds	r25, 0x067A
    3ace:	a0 91 7b 06 	lds	r26, 0x067B
    3ad2:	b0 91 7c 06 	lds	r27, 0x067C
    3ad6:	30 91 7d 06 	lds	r19, 0x067D
    3ada:	01 96       	adiw	r24, 0x01	; 1
    3adc:	a1 1d       	adc	r26, r1
    3ade:	b1 1d       	adc	r27, r1
    3ae0:	23 2f       	mov	r18, r19
    3ae2:	2d 5f       	subi	r18, 0xFD	; 253
    3ae4:	2d 37       	cpi	r18, 0x7D	; 125
    3ae6:	20 f0       	brcs	.+8      	; 0x3af0 <__vector_16+0x40>
    3ae8:	2d 57       	subi	r18, 0x7D	; 125
    3aea:	01 96       	adiw	r24, 0x01	; 1
    3aec:	a1 1d       	adc	r26, r1
    3aee:	b1 1d       	adc	r27, r1
    3af0:	20 93 7d 06 	sts	0x067D, r18
    3af4:	80 93 79 06 	sts	0x0679, r24
    3af8:	90 93 7a 06 	sts	0x067A, r25
    3afc:	a0 93 7b 06 	sts	0x067B, r26
    3b00:	b0 93 7c 06 	sts	0x067C, r27
    3b04:	80 91 75 06 	lds	r24, 0x0675
    3b08:	90 91 76 06 	lds	r25, 0x0676
    3b0c:	a0 91 77 06 	lds	r26, 0x0677
    3b10:	b0 91 78 06 	lds	r27, 0x0678
    3b14:	01 96       	adiw	r24, 0x01	; 1
    3b16:	a1 1d       	adc	r26, r1
    3b18:	b1 1d       	adc	r27, r1
    3b1a:	80 93 75 06 	sts	0x0675, r24
    3b1e:	90 93 76 06 	sts	0x0676, r25
    3b22:	a0 93 77 06 	sts	0x0677, r26
    3b26:	b0 93 78 06 	sts	0x0678, r27
    3b2a:	bf 91       	pop	r27
    3b2c:	af 91       	pop	r26
    3b2e:	9f 91       	pop	r25
    3b30:	8f 91       	pop	r24
    3b32:	3f 91       	pop	r19
    3b34:	2f 91       	pop	r18
    3b36:	0f 90       	pop	r0
    3b38:	0f be       	out	0x3f, r0	; 63
    3b3a:	0f 90       	pop	r0
    3b3c:	1f 90       	pop	r1
    3b3e:	18 95       	reti

00003b40 <millis>:
    3b40:	8f b7       	in	r24, 0x3f	; 63
    3b42:	f8 94       	cli
    3b44:	20 91 79 06 	lds	r18, 0x0679
    3b48:	30 91 7a 06 	lds	r19, 0x067A
    3b4c:	40 91 7b 06 	lds	r20, 0x067B
    3b50:	50 91 7c 06 	lds	r21, 0x067C
    3b54:	8f bf       	out	0x3f, r24	; 63
    3b56:	b9 01       	movw	r22, r18
    3b58:	ca 01       	movw	r24, r20
    3b5a:	08 95       	ret

00003b5c <delay>:
    3b5c:	9b 01       	movw	r18, r22
    3b5e:	ac 01       	movw	r20, r24
    3b60:	7f b7       	in	r23, 0x3f	; 63
    3b62:	f8 94       	cli
    3b64:	80 91 75 06 	lds	r24, 0x0675
    3b68:	90 91 76 06 	lds	r25, 0x0676
    3b6c:	a0 91 77 06 	lds	r26, 0x0677
    3b70:	b0 91 78 06 	lds	r27, 0x0678
    3b74:	66 b5       	in	r22, 0x26	; 38
    3b76:	a8 9b       	sbis	0x15, 0	; 21
    3b78:	05 c0       	rjmp	.+10     	; 0x3b84 <delay+0x28>
    3b7a:	6f 3f       	cpi	r22, 0xFF	; 255
    3b7c:	19 f0       	breq	.+6      	; 0x3b84 <delay+0x28>
    3b7e:	01 96       	adiw	r24, 0x01	; 1
    3b80:	a1 1d       	adc	r26, r1
    3b82:	b1 1d       	adc	r27, r1
    3b84:	7f bf       	out	0x3f, r23	; 63
    3b86:	ba 2f       	mov	r27, r26
    3b88:	a9 2f       	mov	r26, r25
    3b8a:	98 2f       	mov	r25, r24
    3b8c:	88 27       	eor	r24, r24
    3b8e:	86 0f       	add	r24, r22
    3b90:	91 1d       	adc	r25, r1
    3b92:	a1 1d       	adc	r26, r1
    3b94:	b1 1d       	adc	r27, r1
    3b96:	62 e0       	ldi	r22, 0x02	; 2
    3b98:	88 0f       	add	r24, r24
    3b9a:	99 1f       	adc	r25, r25
    3b9c:	aa 1f       	adc	r26, r26
    3b9e:	bb 1f       	adc	r27, r27
    3ba0:	6a 95       	dec	r22
    3ba2:	d1 f7       	brne	.-12     	; 0x3b98 <delay+0x3c>
    3ba4:	bc 01       	movw	r22, r24
    3ba6:	2d c0       	rjmp	.+90     	; 0x3c02 <delay+0xa6>
    3ba8:	ff b7       	in	r31, 0x3f	; 63
    3baa:	f8 94       	cli
    3bac:	80 91 75 06 	lds	r24, 0x0675
    3bb0:	90 91 76 06 	lds	r25, 0x0676
    3bb4:	a0 91 77 06 	lds	r26, 0x0677
    3bb8:	b0 91 78 06 	lds	r27, 0x0678
    3bbc:	e6 b5       	in	r30, 0x26	; 38
    3bbe:	a8 9b       	sbis	0x15, 0	; 21
    3bc0:	05 c0       	rjmp	.+10     	; 0x3bcc <delay+0x70>
    3bc2:	ef 3f       	cpi	r30, 0xFF	; 255
    3bc4:	19 f0       	breq	.+6      	; 0x3bcc <delay+0x70>
    3bc6:	01 96       	adiw	r24, 0x01	; 1
    3bc8:	a1 1d       	adc	r26, r1
    3bca:	b1 1d       	adc	r27, r1
    3bcc:	ff bf       	out	0x3f, r31	; 63
    3bce:	ba 2f       	mov	r27, r26
    3bd0:	a9 2f       	mov	r26, r25
    3bd2:	98 2f       	mov	r25, r24
    3bd4:	88 27       	eor	r24, r24
    3bd6:	8e 0f       	add	r24, r30
    3bd8:	91 1d       	adc	r25, r1
    3bda:	a1 1d       	adc	r26, r1
    3bdc:	b1 1d       	adc	r27, r1
    3bde:	e2 e0       	ldi	r30, 0x02	; 2
    3be0:	88 0f       	add	r24, r24
    3be2:	99 1f       	adc	r25, r25
    3be4:	aa 1f       	adc	r26, r26
    3be6:	bb 1f       	adc	r27, r27
    3be8:	ea 95       	dec	r30
    3bea:	d1 f7       	brne	.-12     	; 0x3be0 <delay+0x84>
    3bec:	86 1b       	sub	r24, r22
    3bee:	97 0b       	sbc	r25, r23
    3bf0:	88 5e       	subi	r24, 0xE8	; 232
    3bf2:	93 40       	sbci	r25, 0x03	; 3
    3bf4:	c8 f2       	brcs	.-78     	; 0x3ba8 <delay+0x4c>
    3bf6:	21 50       	subi	r18, 0x01	; 1
    3bf8:	30 40       	sbci	r19, 0x00	; 0
    3bfa:	40 40       	sbci	r20, 0x00	; 0
    3bfc:	50 40       	sbci	r21, 0x00	; 0
    3bfe:	68 51       	subi	r22, 0x18	; 24
    3c00:	7c 4f       	sbci	r23, 0xFC	; 252
    3c02:	21 15       	cp	r18, r1
    3c04:	31 05       	cpc	r19, r1
    3c06:	41 05       	cpc	r20, r1
    3c08:	51 05       	cpc	r21, r1
    3c0a:	71 f6       	brne	.-100    	; 0x3ba8 <delay+0x4c>
    3c0c:	08 95       	ret

00003c0e <init>:
    3c0e:	78 94       	sei
    3c10:	84 b5       	in	r24, 0x24	; 36
    3c12:	82 60       	ori	r24, 0x02	; 2
    3c14:	84 bd       	out	0x24, r24	; 36
    3c16:	84 b5       	in	r24, 0x24	; 36
    3c18:	81 60       	ori	r24, 0x01	; 1
    3c1a:	84 bd       	out	0x24, r24	; 36
    3c1c:	85 b5       	in	r24, 0x25	; 37
    3c1e:	82 60       	ori	r24, 0x02	; 2
    3c20:	85 bd       	out	0x25, r24	; 37
    3c22:	85 b5       	in	r24, 0x25	; 37
    3c24:	81 60       	ori	r24, 0x01	; 1
    3c26:	85 bd       	out	0x25, r24	; 37
    3c28:	ee e6       	ldi	r30, 0x6E	; 110
    3c2a:	f0 e0       	ldi	r31, 0x00	; 0
    3c2c:	80 81       	ld	r24, Z
    3c2e:	81 60       	ori	r24, 0x01	; 1
    3c30:	80 83       	st	Z, r24
    3c32:	e1 e8       	ldi	r30, 0x81	; 129
    3c34:	f0 e0       	ldi	r31, 0x00	; 0
    3c36:	10 82       	st	Z, r1
    3c38:	80 81       	ld	r24, Z
    3c3a:	82 60       	ori	r24, 0x02	; 2
    3c3c:	80 83       	st	Z, r24
    3c3e:	80 81       	ld	r24, Z
    3c40:	81 60       	ori	r24, 0x01	; 1
    3c42:	80 83       	st	Z, r24
    3c44:	e0 e8       	ldi	r30, 0x80	; 128
    3c46:	f0 e0       	ldi	r31, 0x00	; 0
    3c48:	80 81       	ld	r24, Z
    3c4a:	81 60       	ori	r24, 0x01	; 1
    3c4c:	80 83       	st	Z, r24
    3c4e:	e1 eb       	ldi	r30, 0xB1	; 177
    3c50:	f0 e0       	ldi	r31, 0x00	; 0
    3c52:	80 81       	ld	r24, Z
    3c54:	84 60       	ori	r24, 0x04	; 4
    3c56:	80 83       	st	Z, r24
    3c58:	e0 eb       	ldi	r30, 0xB0	; 176
    3c5a:	f0 e0       	ldi	r31, 0x00	; 0
    3c5c:	80 81       	ld	r24, Z
    3c5e:	81 60       	ori	r24, 0x01	; 1
    3c60:	80 83       	st	Z, r24
    3c62:	ea e7       	ldi	r30, 0x7A	; 122
    3c64:	f0 e0       	ldi	r31, 0x00	; 0
    3c66:	80 81       	ld	r24, Z
    3c68:	84 60       	ori	r24, 0x04	; 4
    3c6a:	80 83       	st	Z, r24
    3c6c:	80 81       	ld	r24, Z
    3c6e:	82 60       	ori	r24, 0x02	; 2
    3c70:	80 83       	st	Z, r24
    3c72:	80 81       	ld	r24, Z
    3c74:	81 60       	ori	r24, 0x01	; 1
    3c76:	80 83       	st	Z, r24
    3c78:	80 81       	ld	r24, Z
    3c7a:	80 68       	ori	r24, 0x80	; 128
    3c7c:	80 83       	st	Z, r24
    3c7e:	10 92 c1 00 	sts	0x00C1, r1
    3c82:	08 95       	ret

00003c84 <pinMode>:
    3c84:	cf 93       	push	r28
    3c86:	df 93       	push	r29
    3c88:	48 2f       	mov	r20, r24
    3c8a:	50 e0       	ldi	r21, 0x00	; 0
    3c8c:	ca 01       	movw	r24, r20
    3c8e:	86 55       	subi	r24, 0x56	; 86
    3c90:	9f 4f       	sbci	r25, 0xFF	; 255
    3c92:	fc 01       	movw	r30, r24
    3c94:	34 91       	lpm	r19, Z+
    3c96:	4a 56       	subi	r20, 0x6A	; 106
    3c98:	5f 4f       	sbci	r21, 0xFF	; 255
    3c9a:	fa 01       	movw	r30, r20
    3c9c:	84 91       	lpm	r24, Z+
    3c9e:	88 23       	and	r24, r24
    3ca0:	69 f1       	breq	.+90     	; 0x3cfc <pinMode+0x78>
    3ca2:	90 e0       	ldi	r25, 0x00	; 0
    3ca4:	88 0f       	add	r24, r24
    3ca6:	99 1f       	adc	r25, r25
    3ca8:	fc 01       	movw	r30, r24
    3caa:	e8 58       	subi	r30, 0x88	; 136
    3cac:	ff 4f       	sbci	r31, 0xFF	; 255
    3cae:	a5 91       	lpm	r26, Z+
    3cb0:	b4 91       	lpm	r27, Z+
    3cb2:	fc 01       	movw	r30, r24
    3cb4:	ee 57       	subi	r30, 0x7E	; 126
    3cb6:	ff 4f       	sbci	r31, 0xFF	; 255
    3cb8:	c5 91       	lpm	r28, Z+
    3cba:	d4 91       	lpm	r29, Z+
    3cbc:	66 23       	and	r22, r22
    3cbe:	51 f4       	brne	.+20     	; 0x3cd4 <pinMode+0x50>
    3cc0:	2f b7       	in	r18, 0x3f	; 63
    3cc2:	f8 94       	cli
    3cc4:	8c 91       	ld	r24, X
    3cc6:	93 2f       	mov	r25, r19
    3cc8:	90 95       	com	r25
    3cca:	89 23       	and	r24, r25
    3ccc:	8c 93       	st	X, r24
    3cce:	88 81       	ld	r24, Y
    3cd0:	89 23       	and	r24, r25
    3cd2:	0b c0       	rjmp	.+22     	; 0x3cea <pinMode+0x66>
    3cd4:	62 30       	cpi	r22, 0x02	; 2
    3cd6:	61 f4       	brne	.+24     	; 0x3cf0 <pinMode+0x6c>
    3cd8:	2f b7       	in	r18, 0x3f	; 63
    3cda:	f8 94       	cli
    3cdc:	8c 91       	ld	r24, X
    3cde:	93 2f       	mov	r25, r19
    3ce0:	90 95       	com	r25
    3ce2:	89 23       	and	r24, r25
    3ce4:	8c 93       	st	X, r24
    3ce6:	88 81       	ld	r24, Y
    3ce8:	83 2b       	or	r24, r19
    3cea:	88 83       	st	Y, r24
    3cec:	2f bf       	out	0x3f, r18	; 63
    3cee:	06 c0       	rjmp	.+12     	; 0x3cfc <pinMode+0x78>
    3cf0:	9f b7       	in	r25, 0x3f	; 63
    3cf2:	f8 94       	cli
    3cf4:	8c 91       	ld	r24, X
    3cf6:	83 2b       	or	r24, r19
    3cf8:	8c 93       	st	X, r24
    3cfa:	9f bf       	out	0x3f, r25	; 63
    3cfc:	df 91       	pop	r29
    3cfe:	cf 91       	pop	r28
    3d00:	08 95       	ret

00003d02 <digitalWrite>:
    3d02:	48 2f       	mov	r20, r24
    3d04:	50 e0       	ldi	r21, 0x00	; 0
    3d06:	ca 01       	movw	r24, r20
    3d08:	82 54       	subi	r24, 0x42	; 66
    3d0a:	9f 4f       	sbci	r25, 0xFF	; 255
    3d0c:	fc 01       	movw	r30, r24
    3d0e:	24 91       	lpm	r18, Z+
    3d10:	ca 01       	movw	r24, r20
    3d12:	86 55       	subi	r24, 0x56	; 86
    3d14:	9f 4f       	sbci	r25, 0xFF	; 255
    3d16:	fc 01       	movw	r30, r24
    3d18:	94 91       	lpm	r25, Z+
    3d1a:	4a 56       	subi	r20, 0x6A	; 106
    3d1c:	5f 4f       	sbci	r21, 0xFF	; 255
    3d1e:	fa 01       	movw	r30, r20
    3d20:	34 91       	lpm	r19, Z+
    3d22:	33 23       	and	r19, r19
    3d24:	09 f4       	brne	.+2      	; 0x3d28 <digitalWrite+0x26>
    3d26:	40 c0       	rjmp	.+128    	; 0x3da8 <digitalWrite+0xa6>
    3d28:	22 23       	and	r18, r18
    3d2a:	51 f1       	breq	.+84     	; 0x3d80 <digitalWrite+0x7e>
    3d2c:	23 30       	cpi	r18, 0x03	; 3
    3d2e:	71 f0       	breq	.+28     	; 0x3d4c <digitalWrite+0x4a>
    3d30:	24 30       	cpi	r18, 0x04	; 4
    3d32:	28 f4       	brcc	.+10     	; 0x3d3e <digitalWrite+0x3c>
    3d34:	21 30       	cpi	r18, 0x01	; 1
    3d36:	a1 f0       	breq	.+40     	; 0x3d60 <digitalWrite+0x5e>
    3d38:	22 30       	cpi	r18, 0x02	; 2
    3d3a:	11 f5       	brne	.+68     	; 0x3d80 <digitalWrite+0x7e>
    3d3c:	14 c0       	rjmp	.+40     	; 0x3d66 <digitalWrite+0x64>
    3d3e:	26 30       	cpi	r18, 0x06	; 6
    3d40:	b1 f0       	breq	.+44     	; 0x3d6e <digitalWrite+0x6c>
    3d42:	27 30       	cpi	r18, 0x07	; 7
    3d44:	c1 f0       	breq	.+48     	; 0x3d76 <digitalWrite+0x74>
    3d46:	24 30       	cpi	r18, 0x04	; 4
    3d48:	d9 f4       	brne	.+54     	; 0x3d80 <digitalWrite+0x7e>
    3d4a:	04 c0       	rjmp	.+8      	; 0x3d54 <digitalWrite+0x52>
    3d4c:	80 91 80 00 	lds	r24, 0x0080
    3d50:	8f 77       	andi	r24, 0x7F	; 127
    3d52:	03 c0       	rjmp	.+6      	; 0x3d5a <digitalWrite+0x58>
    3d54:	80 91 80 00 	lds	r24, 0x0080
    3d58:	8f 7d       	andi	r24, 0xDF	; 223
    3d5a:	80 93 80 00 	sts	0x0080, r24
    3d5e:	10 c0       	rjmp	.+32     	; 0x3d80 <digitalWrite+0x7e>
    3d60:	84 b5       	in	r24, 0x24	; 36
    3d62:	8f 77       	andi	r24, 0x7F	; 127
    3d64:	02 c0       	rjmp	.+4      	; 0x3d6a <digitalWrite+0x68>
    3d66:	84 b5       	in	r24, 0x24	; 36
    3d68:	8f 7d       	andi	r24, 0xDF	; 223
    3d6a:	84 bd       	out	0x24, r24	; 36
    3d6c:	09 c0       	rjmp	.+18     	; 0x3d80 <digitalWrite+0x7e>
    3d6e:	80 91 b0 00 	lds	r24, 0x00B0
    3d72:	8f 77       	andi	r24, 0x7F	; 127
    3d74:	03 c0       	rjmp	.+6      	; 0x3d7c <digitalWrite+0x7a>
    3d76:	80 91 b0 00 	lds	r24, 0x00B0
    3d7a:	8f 7d       	andi	r24, 0xDF	; 223
    3d7c:	80 93 b0 00 	sts	0x00B0, r24
    3d80:	e3 2f       	mov	r30, r19
    3d82:	f0 e0       	ldi	r31, 0x00	; 0
    3d84:	ee 0f       	add	r30, r30
    3d86:	ff 1f       	adc	r31, r31
    3d88:	ee 57       	subi	r30, 0x7E	; 126
    3d8a:	ff 4f       	sbci	r31, 0xFF	; 255
    3d8c:	a5 91       	lpm	r26, Z+
    3d8e:	b4 91       	lpm	r27, Z+
    3d90:	2f b7       	in	r18, 0x3f	; 63
    3d92:	f8 94       	cli
    3d94:	66 23       	and	r22, r22
    3d96:	21 f4       	brne	.+8      	; 0x3da0 <digitalWrite+0x9e>
    3d98:	8c 91       	ld	r24, X
    3d9a:	90 95       	com	r25
    3d9c:	89 23       	and	r24, r25
    3d9e:	02 c0       	rjmp	.+4      	; 0x3da4 <digitalWrite+0xa2>
    3da0:	8c 91       	ld	r24, X
    3da2:	89 2b       	or	r24, r25
    3da4:	8c 93       	st	X, r24
    3da6:	2f bf       	out	0x3f, r18	; 63
    3da8:	08 95       	ret

00003daa <digitalRead>:
    3daa:	68 2f       	mov	r22, r24
    3dac:	70 e0       	ldi	r23, 0x00	; 0
    3dae:	cb 01       	movw	r24, r22
    3db0:	82 54       	subi	r24, 0x42	; 66
    3db2:	9f 4f       	sbci	r25, 0xFF	; 255
    3db4:	fc 01       	movw	r30, r24
    3db6:	24 91       	lpm	r18, Z+
    3db8:	cb 01       	movw	r24, r22
    3dba:	86 55       	subi	r24, 0x56	; 86
    3dbc:	9f 4f       	sbci	r25, 0xFF	; 255
    3dbe:	fc 01       	movw	r30, r24
    3dc0:	44 91       	lpm	r20, Z+
    3dc2:	6a 56       	subi	r22, 0x6A	; 106
    3dc4:	7f 4f       	sbci	r23, 0xFF	; 255
    3dc6:	fb 01       	movw	r30, r22
    3dc8:	94 91       	lpm	r25, Z+
    3dca:	99 23       	and	r25, r25
    3dcc:	19 f4       	brne	.+6      	; 0x3dd4 <digitalRead+0x2a>
    3dce:	20 e0       	ldi	r18, 0x00	; 0
    3dd0:	30 e0       	ldi	r19, 0x00	; 0
    3dd2:	3c c0       	rjmp	.+120    	; 0x3e4c <digitalRead+0xa2>
    3dd4:	22 23       	and	r18, r18
    3dd6:	51 f1       	breq	.+84     	; 0x3e2c <digitalRead+0x82>
    3dd8:	23 30       	cpi	r18, 0x03	; 3
    3dda:	71 f0       	breq	.+28     	; 0x3df8 <digitalRead+0x4e>
    3ddc:	24 30       	cpi	r18, 0x04	; 4
    3dde:	28 f4       	brcc	.+10     	; 0x3dea <digitalRead+0x40>
    3de0:	21 30       	cpi	r18, 0x01	; 1
    3de2:	a1 f0       	breq	.+40     	; 0x3e0c <digitalRead+0x62>
    3de4:	22 30       	cpi	r18, 0x02	; 2
    3de6:	11 f5       	brne	.+68     	; 0x3e2c <digitalRead+0x82>
    3de8:	14 c0       	rjmp	.+40     	; 0x3e12 <digitalRead+0x68>
    3dea:	26 30       	cpi	r18, 0x06	; 6
    3dec:	b1 f0       	breq	.+44     	; 0x3e1a <digitalRead+0x70>
    3dee:	27 30       	cpi	r18, 0x07	; 7
    3df0:	c1 f0       	breq	.+48     	; 0x3e22 <digitalRead+0x78>
    3df2:	24 30       	cpi	r18, 0x04	; 4
    3df4:	d9 f4       	brne	.+54     	; 0x3e2c <digitalRead+0x82>
    3df6:	04 c0       	rjmp	.+8      	; 0x3e00 <digitalRead+0x56>
    3df8:	80 91 80 00 	lds	r24, 0x0080
    3dfc:	8f 77       	andi	r24, 0x7F	; 127
    3dfe:	03 c0       	rjmp	.+6      	; 0x3e06 <digitalRead+0x5c>
    3e00:	80 91 80 00 	lds	r24, 0x0080
    3e04:	8f 7d       	andi	r24, 0xDF	; 223
    3e06:	80 93 80 00 	sts	0x0080, r24
    3e0a:	10 c0       	rjmp	.+32     	; 0x3e2c <digitalRead+0x82>
    3e0c:	84 b5       	in	r24, 0x24	; 36
    3e0e:	8f 77       	andi	r24, 0x7F	; 127
    3e10:	02 c0       	rjmp	.+4      	; 0x3e16 <digitalRead+0x6c>
    3e12:	84 b5       	in	r24, 0x24	; 36
    3e14:	8f 7d       	andi	r24, 0xDF	; 223
    3e16:	84 bd       	out	0x24, r24	; 36
    3e18:	09 c0       	rjmp	.+18     	; 0x3e2c <digitalRead+0x82>
    3e1a:	80 91 b0 00 	lds	r24, 0x00B0
    3e1e:	8f 77       	andi	r24, 0x7F	; 127
    3e20:	03 c0       	rjmp	.+6      	; 0x3e28 <digitalRead+0x7e>
    3e22:	80 91 b0 00 	lds	r24, 0x00B0
    3e26:	8f 7d       	andi	r24, 0xDF	; 223
    3e28:	80 93 b0 00 	sts	0x00B0, r24
    3e2c:	89 2f       	mov	r24, r25
    3e2e:	90 e0       	ldi	r25, 0x00	; 0
    3e30:	88 0f       	add	r24, r24
    3e32:	99 1f       	adc	r25, r25
    3e34:	84 57       	subi	r24, 0x74	; 116
    3e36:	9f 4f       	sbci	r25, 0xFF	; 255
    3e38:	fc 01       	movw	r30, r24
    3e3a:	a5 91       	lpm	r26, Z+
    3e3c:	b4 91       	lpm	r27, Z+
    3e3e:	8c 91       	ld	r24, X
    3e40:	20 e0       	ldi	r18, 0x00	; 0
    3e42:	30 e0       	ldi	r19, 0x00	; 0
    3e44:	84 23       	and	r24, r20
    3e46:	11 f0       	breq	.+4      	; 0x3e4c <digitalRead+0xa2>
    3e48:	21 e0       	ldi	r18, 0x01	; 1
    3e4a:	30 e0       	ldi	r19, 0x00	; 0
    3e4c:	c9 01       	movw	r24, r18
    3e4e:	08 95       	ret

00003e50 <__mulsi3>:
    3e50:	62 9f       	mul	r22, r18
    3e52:	d0 01       	movw	r26, r0
    3e54:	73 9f       	mul	r23, r19
    3e56:	f0 01       	movw	r30, r0
    3e58:	82 9f       	mul	r24, r18
    3e5a:	e0 0d       	add	r30, r0
    3e5c:	f1 1d       	adc	r31, r1
    3e5e:	64 9f       	mul	r22, r20
    3e60:	e0 0d       	add	r30, r0
    3e62:	f1 1d       	adc	r31, r1
    3e64:	92 9f       	mul	r25, r18
    3e66:	f0 0d       	add	r31, r0
    3e68:	83 9f       	mul	r24, r19
    3e6a:	f0 0d       	add	r31, r0
    3e6c:	74 9f       	mul	r23, r20
    3e6e:	f0 0d       	add	r31, r0
    3e70:	65 9f       	mul	r22, r21
    3e72:	f0 0d       	add	r31, r0
    3e74:	99 27       	eor	r25, r25
    3e76:	72 9f       	mul	r23, r18
    3e78:	b0 0d       	add	r27, r0
    3e7a:	e1 1d       	adc	r30, r1
    3e7c:	f9 1f       	adc	r31, r25
    3e7e:	63 9f       	mul	r22, r19
    3e80:	b0 0d       	add	r27, r0
    3e82:	e1 1d       	adc	r30, r1
    3e84:	f9 1f       	adc	r31, r25
    3e86:	bd 01       	movw	r22, r26
    3e88:	cf 01       	movw	r24, r30
    3e8a:	11 24       	eor	r1, r1
    3e8c:	08 95       	ret

00003e8e <__udivmodsi4>:
    3e8e:	a1 e2       	ldi	r26, 0x21	; 33
    3e90:	1a 2e       	mov	r1, r26
    3e92:	aa 1b       	sub	r26, r26
    3e94:	bb 1b       	sub	r27, r27
    3e96:	fd 01       	movw	r30, r26
    3e98:	0d c0       	rjmp	.+26     	; 0x3eb4 <__udivmodsi4_ep>

00003e9a <__udivmodsi4_loop>:
    3e9a:	aa 1f       	adc	r26, r26
    3e9c:	bb 1f       	adc	r27, r27
    3e9e:	ee 1f       	adc	r30, r30
    3ea0:	ff 1f       	adc	r31, r31
    3ea2:	a2 17       	cp	r26, r18
    3ea4:	b3 07       	cpc	r27, r19
    3ea6:	e4 07       	cpc	r30, r20
    3ea8:	f5 07       	cpc	r31, r21
    3eaa:	20 f0       	brcs	.+8      	; 0x3eb4 <__udivmodsi4_ep>
    3eac:	a2 1b       	sub	r26, r18
    3eae:	b3 0b       	sbc	r27, r19
    3eb0:	e4 0b       	sbc	r30, r20
    3eb2:	f5 0b       	sbc	r31, r21

00003eb4 <__udivmodsi4_ep>:
    3eb4:	66 1f       	adc	r22, r22
    3eb6:	77 1f       	adc	r23, r23
    3eb8:	88 1f       	adc	r24, r24
    3eba:	99 1f       	adc	r25, r25
    3ebc:	1a 94       	dec	r1
    3ebe:	69 f7       	brne	.-38     	; 0x3e9a <__udivmodsi4_loop>
    3ec0:	60 95       	com	r22
    3ec2:	70 95       	com	r23
    3ec4:	80 95       	com	r24
    3ec6:	90 95       	com	r25
    3ec8:	9b 01       	movw	r18, r22
    3eca:	ac 01       	movw	r20, r24
    3ecc:	bd 01       	movw	r22, r26
    3ece:	cf 01       	movw	r24, r30
    3ed0:	08 95       	ret

00003ed2 <__prologue_saves__>:
    3ed2:	2f 92       	push	r2
    3ed4:	3f 92       	push	r3
    3ed6:	4f 92       	push	r4
    3ed8:	5f 92       	push	r5
    3eda:	6f 92       	push	r6
    3edc:	7f 92       	push	r7
    3ede:	8f 92       	push	r8
    3ee0:	9f 92       	push	r9
    3ee2:	af 92       	push	r10
    3ee4:	bf 92       	push	r11
    3ee6:	cf 92       	push	r12
    3ee8:	df 92       	push	r13
    3eea:	ef 92       	push	r14
    3eec:	ff 92       	push	r15
    3eee:	0f 93       	push	r16
    3ef0:	1f 93       	push	r17
    3ef2:	cf 93       	push	r28
    3ef4:	df 93       	push	r29
    3ef6:	cd b7       	in	r28, 0x3d	; 61
    3ef8:	de b7       	in	r29, 0x3e	; 62
    3efa:	ca 1b       	sub	r28, r26
    3efc:	db 0b       	sbc	r29, r27
    3efe:	0f b6       	in	r0, 0x3f	; 63
    3f00:	f8 94       	cli
    3f02:	de bf       	out	0x3e, r29	; 62
    3f04:	0f be       	out	0x3f, r0	; 63
    3f06:	cd bf       	out	0x3d, r28	; 61
    3f08:	09 94       	ijmp

00003f0a <__epilogue_restores__>:
    3f0a:	2a 88       	ldd	r2, Y+18	; 0x12
    3f0c:	39 88       	ldd	r3, Y+17	; 0x11
    3f0e:	48 88       	ldd	r4, Y+16	; 0x10
    3f10:	5f 84       	ldd	r5, Y+15	; 0x0f
    3f12:	6e 84       	ldd	r6, Y+14	; 0x0e
    3f14:	7d 84       	ldd	r7, Y+13	; 0x0d
    3f16:	8c 84       	ldd	r8, Y+12	; 0x0c
    3f18:	9b 84       	ldd	r9, Y+11	; 0x0b
    3f1a:	aa 84       	ldd	r10, Y+10	; 0x0a
    3f1c:	b9 84       	ldd	r11, Y+9	; 0x09
    3f1e:	c8 84       	ldd	r12, Y+8	; 0x08
    3f20:	df 80       	ldd	r13, Y+7	; 0x07
    3f22:	ee 80       	ldd	r14, Y+6	; 0x06
    3f24:	fd 80       	ldd	r15, Y+5	; 0x05
    3f26:	0c 81       	ldd	r16, Y+4	; 0x04
    3f28:	1b 81       	ldd	r17, Y+3	; 0x03
    3f2a:	aa 81       	ldd	r26, Y+2	; 0x02
    3f2c:	b9 81       	ldd	r27, Y+1	; 0x01
    3f2e:	ce 0f       	add	r28, r30
    3f30:	d1 1d       	adc	r29, r1
    3f32:	0f b6       	in	r0, 0x3f	; 63
    3f34:	f8 94       	cli
    3f36:	de bf       	out	0x3e, r29	; 62
    3f38:	0f be       	out	0x3f, r0	; 63
    3f3a:	cd bf       	out	0x3d, r28	; 61
    3f3c:	ed 01       	movw	r28, r26
    3f3e:	08 95       	ret

00003f40 <__tablejump2__>:
    3f40:	ee 0f       	add	r30, r30
    3f42:	ff 1f       	adc	r31, r31

00003f44 <__tablejump__>:
    3f44:	05 90       	lpm	r0, Z+
    3f46:	f4 91       	lpm	r31, Z+
    3f48:	e0 2d       	mov	r30, r0
    3f4a:	09 94       	ijmp

00003f4c <__do_global_dtors>:
    3f4c:	10 e0       	ldi	r17, 0x00	; 0
    3f4e:	c8 ed       	ldi	r28, 0xD8	; 216
    3f50:	d0 e0       	ldi	r29, 0x00	; 0
    3f52:	03 c0       	rjmp	.+6      	; 0x3f5a <.do_global_dtors_start>

00003f54 <.do_global_dtors_loop>:
    3f54:	fe 01       	movw	r30, r28
    3f56:	f6 df       	rcall	.-20     	; 0x3f44 <__tablejump__>
    3f58:	22 96       	adiw	r28, 0x02	; 2

00003f5a <.do_global_dtors_start>:
    3f5a:	ca 3d       	cpi	r28, 0xDA	; 218
    3f5c:	d1 07       	cpc	r29, r17
    3f5e:	d1 f7       	brne	.-12     	; 0x3f54 <.do_global_dtors_loop>
    3f60:	f8 94       	cli

00003f62 <__stop_program>:
    3f62:	ff cf       	rjmp	.-2      	; 0x3f62 <__stop_program>
